 MHPServer

 Timestamp is 68068eee (Mon Apr 21 20:31:10 2025)

 Preferred load address is 00400000

 Start         Length     Name                   Class
 0001:00000000 00013f3cH .text                   CODE
 0001:00013f40 00000cfdH .text$x                 CODE
 0001:00014c40 000002a8H .text$yc                CODE
 0001:00014ef0 000004f3H .text$yd                CODE
 0002:00000000 00000570H .idata$5                DATA
 0002:00000570 00000004H .CRT$XCA                DATA
 0002:00000574 00000004H .CRT$XCAA               DATA
 0002:00000578 00000018H .CRT$XCL                DATA
 0002:00000590 0000003cH .CRT$XCU                DATA
 0002:000005cc 00000004H .CRT$XCZ                DATA
 0002:000005d0 00000004H .CRT$XIA                DATA
 0002:000005d4 00000004H .CRT$XIAA               DATA
 0002:000005d8 00000004H .CRT$XIC                DATA
 0002:000005dc 00000004H .CRT$XIY                DATA
 0002:000005e0 00000004H .CRT$XIZ                DATA
 0002:000005f0 00001c10H .rdata                  DATA
 0002:00002200 00000064H .rdata$debug            DATA
 0002:00002264 00000ab0H .rdata$r                DATA
 0002:00002d20 00000100H .rdata$sxdata           DATA
 0002:00002e20 00000004H .rtc$IAA                DATA
 0002:00002e24 00000004H .rtc$IZZ                DATA
 0002:00002e28 00000004H .rtc$TAA                DATA
 0002:00002e2c 00000004H .rtc$TZZ                DATA
 0002:00002e30 00001188H .xdata$x                DATA
 0002:00003fb8 00000000H ATL$__a                 DATA
 0002:00003fb8 00000000H ATL$__z                 DATA
 0002:00003fb8 00000118H .idata$2                DATA
 0002:000040d0 00000014H .idata$3                DATA
 0002:000040e4 00000570H .idata$4                DATA
 0002:00004654 00001e3aH .idata$6                DATA
 0002:0000648e 00000000H .edata                  DATA
 0003:00000000 00005470H .data                   DATA
 0003:00005470 0018518cH .bss                    DATA
 0004:00000000 00000394H .rsrc$01                DATA
 0004:000003a0 00003730H .rsrc$02                DATA

  Address         Publics by Value              Rva+Base       Lib:Object

 0000:00000000       __except_list              00000000     <absolute>
 0000:00000040       ___safe_se_handler_count   00000040     <absolute>
 0000:00009876       __ldused                   00009876     <absolute>
 0000:00009876       __fltused                  00009876     <absolute>
 0000:00000000       ___ImageBase               00400000     <linker-defined>
 0001:00000000       ??1bad_alloc@std@@UAE@XZ   00401000 f i pugixml.obj
 0001:00000010       ??_Ebad_alloc@std@@UAEPAXI@Z 00401010 f i  CIL library: CIL module
 0001:00000010       ??_Gbad_alloc@std@@UAEPAXI@Z 00401010 f i pugixml.obj
 0001:00000040       ??3@YAXPAX0@Z              00401040 f i pugixml.obj
 0001:00000050       ?assign@?$basic_string@DU?$char_traits@D@std@@V?$allocator@D@2@@std@@QAEAAV12@$$QAV12@@Z 00401050 f i pugixml.obj
 0001:000000c0       ?assign@?$basic_string@DU?$char_traits@D@std@@V?$allocator@D@2@@std@@QAEAAV12@ABV12@II@Z 004010c0 f i pugixml.obj
 0001:00000160       ?assign@?$basic_string@DU?$char_traits@D@std@@V?$allocator@D@2@@std@@QAEAAV12@PBDI@Z 00401160 f i pugixml.obj
 0001:00000230       ?erase@?$basic_string@DU?$char_traits@D@std@@V?$allocator@D@2@@std@@QAEAAV12@II@Z 00401230 f i pugixml.obj
 0001:000002b0       ?_Grow@?$basic_string@DU?$char_traits@D@std@@V?$allocator@D@2@@std@@QAE_NI_N@Z 004012b0 f i pugixml.obj
 0001:00000300       ?_Copy@?$basic_string@DU?$char_traits@D@std@@V?$allocator@D@2@@std@@QAEXII@Z 00401300 f i pugixml.obj
 0001:00000470       ?allocate@?$allocator@E@std@@QAEPAEI@Z 00401470 f i ScreenShot.obj
 0001:00000470       ?allocate@?$allocator@D@std@@QAEPADI@Z 00401470 f i pugixml.obj
 0001:000004c0       ??0bad_alloc@std@@QAE@ABV01@@Z 004014c0 f i pugixml.obj
 0001:000004e0       ??_ECAuthenticate@@UAEPAXI@Z 004014e0 f i  CIL library: CIL module
 0001:000004e0       ??_GCAuthenticate@@UAEPAXI@Z 004014e0 f i Authenticate.obj
 0001:00000530       ??_GCBlackList@@UAEPAXI@Z  00401530 f i BlackList.obj
 0001:00000530       ??_ECBlackList@@UAEPAXI@Z  00401530 f i  CIL library: CIL module
 0001:00000590       ?SetList@CBlackList@@QAEXPAD@Z 00401590 f   BlackList.obj
 0001:00000750       ?CheckIpAddress@CBlackList@@QAE_NPAD@Z 00401750 f   BlackList.obj
 0001:000007e0       ?CheckHardwareId@CBlackList@@QAE_NPAD@Z 004017e0 f   BlackList.obj
 0001:00000870       ?WriteNewBlackList@CBlackList@@QAEXPAD@Z 00401870 f   BlackList.obj
 0001:00000bd0       ??_D?$basic_ofstream@DU?$char_traits@D@std@@@std@@QAEXXZ 00401bd0 f i BlackList.obj
 0001:00000c50       ?push_back@?$vector@UBLACKLIST_IPADDR_INFO@@V?$allocator@UBLACKLIST_IPADDR_INFO@@@std@@@std@@QAEXABUBLACKLIST_IPADDR_INFO@@@Z 00401c50 f i BlackList.obj
 0001:00000cf0       ?clear@?$vector@UBLACKLIST_IPADDR_INFO@@V?$allocator@UBLACKLIST_IPADDR_INFO@@@std@@@std@@QAEXXZ 00401cf0 f i BlackList.obj
 0001:00000d30       ?push_back@?$vector@UBLACKLIST_HARDID_INFO@@V?$allocator@UBLACKLIST_HARDID_INFO@@@std@@@std@@QAEXABUBLACKLIST_HARDID_INFO@@@Z 00401d30 f i BlackList.obj
 0001:00000d90       ??0?$basic_ofstream@DU?$char_traits@D@std@@@std@@QAE@XZ 00401d90 f i BlackList.obj
 0001:00000e50       ??1?$basic_filebuf@DU?$char_traits@D@std@@@std@@UAE@XZ 00401e50 f i BlackList.obj
 0001:00000f10       ?_Lock@?$basic_filebuf@DU?$char_traits@D@std@@@std@@UAEXXZ 00401f10 f i BlackList.obj
 0001:00000f20       ?_Unlock@?$basic_filebuf@DU?$char_traits@D@std@@@std@@UAEXXZ 00401f20 f i BlackList.obj
 0001:00000f30       ?overflow@?$basic_filebuf@DU?$char_traits@D@std@@@std@@MAEHH@Z 00401f30 f i BlackList.obj
 0001:00001170       ?pbackfail@?$basic_filebuf@DU?$char_traits@D@std@@@std@@MAEHH@Z 00402170 f i BlackList.obj
 0001:00001200       ?underflow@?$basic_filebuf@DU?$char_traits@D@std@@@std@@MAEHXZ 00402200 f i BlackList.obj
 0001:00001250       ?uflow@?$basic_filebuf@DU?$char_traits@D@std@@@std@@MAEHXZ 00402250 f i BlackList.obj
 0001:000014f0       ?seekoff@?$basic_filebuf@DU?$char_traits@D@std@@@std@@MAE?AV?$fpos@H@2@_JHH@Z 004024f0 f i BlackList.obj
 0001:000015f0       ?seekpos@?$basic_filebuf@DU?$char_traits@D@std@@@std@@MAE?AV?$fpos@H@2@V32@H@Z 004025f0 f i BlackList.obj
 0001:000016e0       ?setbuf@?$basic_filebuf@DU?$char_traits@D@std@@@std@@MAEPAV?$basic_streambuf@DU?$char_traits@D@std@@@2@PAD_J@Z 004026e0 f i BlackList.obj
 0001:00001770       ?sync@?$basic_filebuf@DU?$char_traits@D@std@@@std@@MAEHXZ 00402770 f i BlackList.obj
 0001:000017b0       ?imbue@?$basic_filebuf@DU?$char_traits@D@std@@@std@@MAEXABVlocale@2@@Z 004027b0 f i BlackList.obj
 0001:000017f0       ??_E?$basic_ofstream@DU?$char_traits@D@std@@@std@@UAEPAXI@Z 004027f0 f i  CIL library: CIL module
 0001:000017f0       ??_G?$basic_ofstream@DU?$char_traits@D@std@@@std@@UAEPAXI@Z 004027f0 f i BlackList.obj
 0001:00001880       ??_E?$basic_filebuf@DU?$char_traits@D@std@@@std@@UAEPAXI@Z 00402880 f i  CIL library: CIL module
 0001:00001880       ??_G?$basic_filebuf@DU?$char_traits@D@std@@@std@@UAEPAXI@Z 00402880 f i BlackList.obj
 0001:000018b0       ?_Reserve@?$vector@UBLACKLIST_IPADDR_INFO@@V?$allocator@UBLACKLIST_IPADDR_INFO@@@std@@@std@@IAEXI@Z 004028b0 f i BlackList.obj
 0001:00001920       ?_Reserve@?$vector@UBLACKLIST_HARDID_INFO@@V?$allocator@UBLACKLIST_HARDID_INFO@@@std@@@std@@IAEXI@Z 00402920 f i BlackList.obj
 0001:00001990       ?open@?$basic_filebuf@DU?$char_traits@D@std@@@std@@QAEPAV12@PBDHH@Z 00402990 f i BlackList.obj
 0001:00001a90       ?_Endwrite@?$basic_filebuf@DU?$char_traits@D@std@@@std@@IAE_NXZ 00402a90 f i BlackList.obj
 0001:00001c20       ?_Reset_back@?$basic_filebuf@DU?$char_traits@D@std@@@std@@AAEXXZ 00402c20 f i BlackList.obj
 0001:00001c50       ?_Set_back@?$basic_filebuf@DU?$char_traits@D@std@@@std@@AAEXXZ 00402c50 f i BlackList.obj
 0001:00001c90       ?reserve@?$vector@UBLACKLIST_IPADDR_INFO@@V?$allocator@UBLACKLIST_IPADDR_INFO@@@std@@@std@@QAEXI@Z 00402c90 f i BlackList.obj
 0001:00001d80       ?reserve@?$vector@UBLACKLIST_HARDID_INFO@@V?$allocator@UBLACKLIST_HARDID_INFO@@@std@@@std@@QAEXI@Z 00402d80 f i BlackList.obj
 0001:00001e70       ?allocate@?$allocator@UBLACKLIST_IPADDR_INFO@@@std@@QAEPAUBLACKLIST_IPADDR_INFO@@I@Z 00402e70 f i BlackList.obj
 0001:00001ed0       ?allocate@?$allocator@UBLACKLIST_HARDID_INFO@@@std@@QAEPAUBLACKLIST_HARDID_INFO@@I@Z 00402ed0 f i BlackList.obj
 0001:00001f30       ??$?6U?$char_traits@D@std@@@std@@YAAAV?$basic_ostream@DU?$char_traits@D@std@@@0@AAV10@PBD@Z 00402f30 f i BlackList.obj
 0001:00002180       ??$use_facet@V?$codecvt@DDH@std@@@std@@YAABV?$codecvt@DDH@0@ABVlocale@0@@Z 00403180 f i BlackList.obj
 0001:00002280       ??$_Uninit_move@PAUBLACKLIST_IPADDR_INFO@@PAU1@V?$allocator@UBLACKLIST_IPADDR_INFO@@@std@@U1@@std@@YAPAUBLACKLIST_IPADDR_INFO@@PAU1@00AAV?$allocator@UBLACKLIST_IPADDR_INFO@@@0@0U_Nonscalar_ptr_iterator_tag@0@@Z 00403280 f i BlackList.obj
 0001:000022b0       ??$_Uninit_move@PAUBLACKLIST_HARDID_INFO@@PAU1@V?$allocator@UBLACKLIST_HARDID_INFO@@@std@@U1@@std@@YAPAUBLACKLIST_HARDID_INFO@@PAU1@00AAV?$allocator@UBLACKLIST_HARDID_INFO@@@0@0U_Nonscalar_ptr_iterator_tag@0@@Z 004032b0 f i BlackList.obj
 0001:000022e0       ??0?$basic_string@DU?$char_traits@D@std@@V?$allocator@D@2@@std@@QAE@ID@Z 004032e0 f i BlackList.obj
 0001:00002340       ??1locale@std@@QAE@XZ      00403340 f i BlackList.obj
 0001:00002360       ??1_Sentry_base@?$basic_ostream@DU?$char_traits@D@std@@@std@@QAE@XZ 00403360 f i BlackList.obj
 0001:00002380       ??1sentry@?$basic_ostream@DU?$char_traits@D@std@@@std@@QAE@XZ 00403380 f i BlackList.obj
 0001:000023f0       ?Initialize@CCRC32@@QAEXXZ 004033f0 f   CCRC32.obj
 0001:00002530       ?FileCRC@CCRC32@@QAE_NPBDPAKK@Z 00403530 f   CCRC32.obj
 0001:00002620       ??0CClientManager@@QAE@XZ  00403620 f   ClientManager.obj
 0001:00002660       ??_GCClientManager@@UAEPAXI@Z 00403660 f i ClientManager.obj
 0001:00002660       ??_ECClientManager@@UAEPAXI@Z 00403660 f i  CIL library: CIL module
 0001:00002690       ??1CClientManager@@UAE@XZ  00403690 f   ClientManager.obj
 0001:000026a0       ?AddClient@CClientManager@@QAEXHPADI@Z 004036a0 f   ClientManager.obj
 0001:000027f0       ?DelClient@CClientManager@@QAEXXZ 004037f0 f   ClientManager.obj
 0001:00002880       ?SetClientInfo@CClientManager@@QAEXPAD@Z 00403880 f   ClientManager.obj
 0001:000028b0       ??_D?$basic_stringstream@DU?$char_traits@D@std@@V?$allocator@D@2@@std@@QAEXXZ 004038b0 f i computerHash.obj
 0001:00002920       ?substr@?$basic_string@DU?$char_traits@D@std@@V?$allocator@D@2@@std@@QBE?AV12@II@Z 00403920 f i computerHash.obj
 0001:00002950       ??0?$basic_stringstream@DU?$char_traits@D@std@@V?$allocator@D@2@@std@@QAE@H@Z 00403950 f i computerHash.obj
 0001:000029f0       ?str@?$basic_stringstream@DU?$char_traits@D@std@@V?$allocator@D@2@@std@@QBE?AV?$basic_string@DU?$char_traits@D@std@@V?$allocator@D@2@@2@XZ 004039f0 f i computerHash.obj
 0001:00002a10       ??1?$basic_stringbuf@DU?$char_traits@D@std@@V?$allocator@D@2@@std@@UAE@XZ 00403a10 f i computerHash.obj
 0001:00002a80       ?overflow@?$basic_stringbuf@DU?$char_traits@D@std@@V?$allocator@D@2@@std@@MAEHH@Z 00403a80 f i computerHash.obj
 0001:00002c50       ?pbackfail@?$basic_stringbuf@DU?$char_traits@D@std@@V?$allocator@D@2@@std@@MAEHH@Z 00403c50 f i computerHash.obj
 0001:00002ca0       ?underflow@?$basic_stringbuf@DU?$char_traits@D@std@@V?$allocator@D@2@@std@@MAEHXZ 00403ca0 f i computerHash.obj
 0001:00002d10       ?seekoff@?$basic_stringbuf@DU?$char_traits@D@std@@V?$allocator@D@2@@std@@MAE?AV?$fpos@H@2@_JHH@Z 00403d10 f i computerHash.obj
 0001:00002ec0       ?seekpos@?$basic_stringbuf@DU?$char_traits@D@std@@V?$allocator@D@2@@std@@MAE?AV?$fpos@H@2@V32@H@Z 00403ec0 f i computerHash.obj
 0001:00002ff0       ??_E?$basic_stringstream@DU?$char_traits@D@std@@V?$allocator@D@2@@std@@UAEPAXI@Z 00403ff0 f i  CIL library: CIL module
 0001:00002ff0       ??_G?$basic_stringstream@DU?$char_traits@D@std@@V?$allocator@D@2@@std@@UAEPAXI@Z 00403ff0 f i computerHash.obj
 0001:00003080       ??_E?$basic_stringbuf@DU?$char_traits@D@std@@V?$allocator@D@2@@std@@UAEPAXI@Z 00404080 f i  CIL library: CIL module
 0001:00003080       ??_G?$basic_stringbuf@DU?$char_traits@D@std@@V?$allocator@D@2@@std@@UAEPAXI@Z 00404080 f i computerHash.obj
 0001:000030b0       ?str@?$basic_stringbuf@DU?$char_traits@D@std@@V?$allocator@D@2@@std@@QBE?AV?$basic_string@DU?$char_traits@D@std@@V?$allocator@D@2@@2@XZ 004040b0 f i computerHash.obj
 0001:000031e0       ??_GCCriticalSection@@UAEPAXI@Z 004041e0 f i CriticalSection.obj
 0001:000031e0       ??_ECCriticalSection@@UAEPAXI@Z 004041e0 f i  CIL library: CIL module
 0001:00003210       ??1CCriticalSection@@UAE@XZ 00404210 f   CriticalSection.obj
 0001:00003230       ?httpGet@@YAHPADH0@Z       00404230 f   FileDownloadHTTP.obj
 0001:00003470       ?recvLine@@YAHHPADH@Z      00404470 f   FileDownloadHTTP.obj
 0001:000034c0       ??$sprintf_s@$0PPPP@@@YAHAAY0PPPP@DPBDZZ 004044c0 f i FileDownloadHTTP.obj
 0001:000034e0       ?breakUrl@@YAXPBDPAUURLPARTS_T@@@Z 004044e0 f   FileDownloadURL.obj
 0001:00003640       _WinMain@16                00404640 f   HackServer.obj
 0001:00003870       ?MyRegisterClass@@YAGPAUHINSTANCE__@@@Z 00404870 f   HackServer.obj
 0001:000038f0       ?InitInstance@@YAHPAUHINSTANCE__@@H@Z 004048f0 f   HackServer.obj
 0001:00003960       ?wnd_proc@@YGJPAUHWND__@@IIJ@Z 00404960 f   HackServer.obj
 0001:00003bd0       ?About@@YGJPAUHWND__@@IIJ@Z 00404bd0 f   HackServer.obj
 0001:00003c10       ?PlayersList@@YGJPAUHWND__@@IIJ@Z 00404c10 f   HackServer.obj
 0001:00003d90       ?Banned@@YGJPAUHWND__@@IIJ@Z 00404d90 f   HackServer.obj
 0001:00003e80       ?Screen@@YGJPAUHWND__@@IIJ@Z 00404e80 f   HackServer.obj
 0001:00004060       ?SetListViewColumns@@YAHPAUHWND__@@HHPAPADPAH@Z 00405060 f   HackServer.obj
 0001:000040e0       ?CreateListView@@YAPAUHWND__@@PAU1@I@Z 004050e0 f   HackServer.obj
 0001:00004180       ?ProcessList@@YGJPAUHWND__@@IIJ@Z 00405180 f   HackServer.obj
 0001:000043a0       ?HackServerProtocolCore@@YAXHEPAEH@Z 004053a0 f   HackServerProtocol.obj
 0001:00004530       ?CHClientInfoRecv@@YAXPAUSDHP_CLIENT_INFO_RECV@@H@Z 00405530 f   HackServerProtocol.obj
 0001:00004870       ?CHConnectionStatusRecv@@YAXPAUSDHP_CONNECTION_STATUS_RECV@@H@Z 00405870 f   HackServerProtocol.obj
 0001:000048c0       ?CHClientDisconnectRecv@@YAXPAUSDHP_CLIENT_DISCONNECT_RECV@@H@Z 004058c0 f   HackServerProtocol.obj
 0001:00004b50       ?CGAccountInfoRecv@@YAXPAUSDHP_CLIENT_ACCOUNT_INFO_RECV@@H@Z 00405b50 f   HackServerProtocol.obj
 0001:00004ba0       ?HCDumpListSend@@YAXH@Z    00405ba0 f   HackServerProtocol.obj
 0001:00004d30       ?HCChecksumListSend@@YAXH@Z 00405d30 f   HackServerProtocol.obj
 0001:00004ea0       ?HCInternalListSend@@YAXH@Z 00405ea0 f   HackServerProtocol.obj
 0001:00005010       ?HCWindowListSend@@YAXH@Z  00406010 f   HackServerProtocol.obj
 0001:00005170       ?HCClientDisconnectSend@@YAXHH@Z 00406170 f   HackServerProtocol.obj
 0001:000051c0       ?init_dialog@CHelperPlayers@@QAEXQAUHWND__@@@Z 004061c0 f   HelperPlayers.obj
 0001:00005210       ?close_client@CHelperPlayers@@QAEXXZ 00406210 f   HelperPlayers.obj
 0001:000052b0       ?search_ip@CHelperPlayers@@QAEXXZ 004062b0 f   HelperPlayers.obj
 0001:00005520       ?ban_ip@CHelperPlayers@@QAEXXZ 00406520 f   HelperPlayers.obj
 0001:000055e0       ?ban_hwid@CHelperPlayers@@QAEXXZ 004065e0 f   HelperPlayers.obj
 0001:000056f0       ?reset_pc@CHelperPlayers@@QAEXXZ 004066f0 f   HelperPlayers.obj
 0001:00005790       ?list_ip@CHelperPlayers@@QAEXI@Z 00406790 f   HelperPlayers.obj
 0001:00005920       ?list_hwid@CHelperPlayers@@QAEXI@Z 00406920 f   HelperPlayers.obj
 0001:000059f0       ?make_screen_shot@CHelperPlayers@@QAEXXZ 004069f0 f   HelperPlayers.obj
 0001:00005a80       ?reload@CHelperPlayers@@QAEXXZ 00406a80 f   HelperPlayers.obj
 0001:00005ba0       ?process_list@CHelperPlayers@@QAEXXZ 00406ba0 f   HelperPlayers.obj
 0001:00005c40       ?screen_show@CHelperPlayers@@QAEXXZ 00406c40 f   HelperPlayers.obj
 0001:00005d70       ?set_account_info@CHelperPlayers@@QAEXH@Z 00406d70 f   HelperPlayers.obj
 0001:00005e30       ??0CHidManager@@QAE@XZ     00406e30 f   HidManager.obj
 0001:00005f10       ??_GCHidManager@@UAEPAXI@Z 00406f10 f i HidManager.obj
 0001:00005f10       ??_ECHidManager@@UAEPAXI@Z 00406f10 f i  CIL library: CIL module
 0001:00005fc0       ?CheckHardwareId@CHidManager@@QAE_NQAD@Z 00406fc0 f   HidManager.obj
 0001:00006040       ?InsertHardwareId@CHidManager@@QAEXQAD@Z 00407040 f   HidManager.obj
 0001:00006110       ?ClearHardwareId@CHidManager@@QAEXXZ 00407110 f   HidManager.obj
 0001:00006180       ?DeleteAllHardwareId@CHidManager@@QAEXXZ 00407180 f   HidManager.obj
 0001:00006200       ?CheckHwidConnectionLimit@CHidManager@@QAE_NPAD@Z 00407200 f   HidManager.obj
 0001:000062f0       ?IncrementHwidCount@CHidManager@@QAEXPAD@Z 004072f0 f   HidManager.obj
 0001:000063b0       ?DecrementHwidCount@CHidManager@@QAEXPAD@Z 004073b0 f   HidManager.obj
 0001:00006490       ??1?$vector@UHARDWARE_ID_INFO@@V?$allocator@UHARDWARE_ID_INFO@@@std@@@std@@QAE@XZ 00407490 f i HidManager.obj
 0001:000064c0       ??A?$map@V?$basic_string@DU?$char_traits@D@std@@V?$allocator@D@2@@std@@HU?$less@V?$basic_string@DU?$char_traits@D@std@@V?$allocator@D@2@@std@@@2@V?$allocator@U?$pair@$$CBV?$basic_string@DU?$char_traits@D@std@@V?$allocator@D@2@@std@@H@std@@@2@@std@@QAEAAHABV?$basic_string@DU?$char_traits@D@std@@V?$allocator@D@2@@1@@Z 004074c0 f i HidManager.obj
 0001:000065d0       ?erase@?$_Tree@V?$_Tmap_traits@V?$basic_string@DU?$char_traits@D@std@@V?$allocator@D@2@@std@@HU?$less@V?$basic_string@DU?$char_traits@D@std@@V?$allocator@D@2@@std@@@2@V?$allocator@U?$pair@$$CBV?$basic_string@DU?$char_traits@D@std@@V?$allocator@D@2@@std@@H@std@@@2@$0A@@std@@@std@@QAE?AV?$_Tree_iterator@V?$_Tree_val@V?$_Tmap_traits@V?$basic_string@DU?$char_traits@D@std@@V?$allocator@D@2@@std@@HU?$less@V?$basic_string@DU?$char_traits@D@std@@V?$allocator@D@2@@std@@@2@V?$allocator@U?$pair@$$CBV?$basic_string@DU?$char_traits@D@std@@V?$allocator@D@2@@std@@H@std@@@2@$0A@@std@@@std@@@2@V?$_Tree_const_iterator@V?$_Tree_val@V?$_Tmap_traits@V?$basic_string@DU?$char_traits@D@std@@V?$allocator@D@2@@std@@HU?$less@V?$basic_string@DU?$char_traits@D@std@@V?$allocator@D@2@@std@@@2@V?$allocator@U?$pair@$$CBV?$basic_string@DU?$char_traits@D@std@@V?$allocator@D@2@@std@@H@std@@@2@$0A@@std@@@std@@@2@@Z 004075d0 f i HidManager.obj
 0001:00006860       ?find@?$_Tree@V?$_Tmap_traits@V?$basic_string@DU?$char_traits@D@std@@V?$allocator@D@2@@std@@HU?$less@V?$basic_string@DU?$char_traits@D@std@@V?$allocator@D@2@@std@@@2@V?$allocator@U?$pair@$$CBV?$basic_string@DU?$char_traits@D@std@@V?$allocator@D@2@@std@@H@std@@@2@$0A@@std@@@std@@QAE?AV?$_Tree_iterator@V?$_Tree_val@V?$_Tmap_traits@V?$basic_string@DU?$char_traits@D@std@@V?$allocator@D@2@@std@@HU?$less@V?$basic_string@DU?$char_traits@D@std@@V?$allocator@D@2@@std@@@2@V?$allocator@U?$pair@$$CBV?$basic_string@DU?$char_traits@D@std@@V?$allocator@D@2@@std@@H@std@@@2@$0A@@std@@@std@@@2@ABV?$basic_string@DU?$char_traits@D@std@@V?$allocator@D@2@@2@@Z 00407860 f i HidManager.obj
 0001:000068f0       ?_Reserve@?$vector@UHARDWARE_ID_INFO@@V?$allocator@UHARDWARE_ID_INFO@@@std@@@std@@IAEXI@Z 004078f0 f i HidManager.obj
 0001:00006960       ?_Lrotate@?$_Tree@V?$_Tmap_traits@V?$basic_string@DU?$char_traits@D@std@@V?$allocator@D@2@@std@@HU?$less@V?$basic_string@DU?$char_traits@D@std@@V?$allocator@D@2@@std@@@2@V?$allocator@U?$pair@$$CBV?$basic_string@DU?$char_traits@D@std@@V?$allocator@D@2@@std@@H@std@@@2@$0A@@std@@@std@@IAEXPAU_Node@?$_Tree_nod@V?$_Tmap_traits@V?$basic_string@DU?$char_traits@D@std@@V?$allocator@D@2@@std@@HU?$less@V?$basic_string@DU?$char_traits@D@std@@V?$allocator@D@2@@std@@@2@V?$allocator@U?$pair@$$CBV?$basic_string@DU?$char_traits@D@std@@V?$allocator@D@2@@std@@H@std@@@2@$0A@@std@@@2@@Z 00407960 f i HidManager.obj
 0001:000069c0       ?_Rrotate@?$_Tree@V?$_Tmap_traits@V?$basic_string@DU?$char_traits@D@std@@V?$allocator@D@2@@std@@HU?$less@V?$basic_string@DU?$char_traits@D@std@@V?$allocator@D@2@@std@@@2@V?$allocator@U?$pair@$$CBV?$basic_string@DU?$char_traits@D@std@@V?$allocator@D@2@@std@@H@std@@@2@$0A@@std@@@std@@IAEXPAU_Node@?$_Tree_nod@V?$_Tmap_traits@V?$basic_string@DU?$char_traits@D@std@@V?$allocator@D@2@@std@@HU?$less@V?$basic_string@DU?$char_traits@D@std@@V?$allocator@D@2@@std@@@2@V?$allocator@U?$pair@$$CBV?$basic_string@DU?$char_traits@D@std@@V?$allocator@D@2@@std@@H@std@@@2@$0A@@std@@@2@@Z 004079c0 f i HidManager.obj
 0001:00006a20       ?_Max@?$_Tree_val@V?$_Tmap_traits@V?$basic_string@DU?$char_traits@D@std@@V?$allocator@D@2@@std@@HU?$less@V?$basic_string@DU?$char_traits@D@std@@V?$allocator@D@2@@std@@@2@V?$allocator@U?$pair@$$CBV?$basic_string@DU?$char_traits@D@std@@V?$allocator@D@2@@std@@H@std@@@2@$0A@@std@@@std@@SAPAU_Node@?$_Tree_nod@V?$_Tmap_traits@V?$basic_string@DU?$char_traits@D@std@@V?$allocator@D@2@@std@@HU?$less@V?$basic_string@DU?$char_traits@D@std@@V?$allocator@D@2@@std@@@2@V?$allocator@U?$pair@$$CBV?$basic_string@DU?$char_traits@D@std@@V?$allocator@D@2@@std@@H@std@@@2@$0A@@std@@@2@PAU342@@Z 00407a20 f i HidManager.obj
 0001:00006a40       ??R?$less@V?$basic_string@DU?$char_traits@D@std@@V?$allocator@D@2@@std@@@std@@QBE_NABV?$basic_string@DU?$char_traits@D@std@@V?$allocator@D@2@@1@0@Z 00407a40 f i HidManager.obj
 0001:00006a90       ?reserve@?$vector@UHARDWARE_ID_INFO@@V?$allocator@UHARDWARE_ID_INFO@@@std@@@std@@QAEXI@Z 00407a90 f i HidManager.obj
 0001:00006b80       ?erase@?$_Tree@V?$_Tmap_traits@V?$basic_string@DU?$char_traits@D@std@@V?$allocator@D@2@@std@@HU?$less@V?$basic_string@DU?$char_traits@D@std@@V?$allocator@D@2@@std@@@2@V?$allocator@U?$pair@$$CBV?$basic_string@DU?$char_traits@D@std@@V?$allocator@D@2@@std@@H@std@@@2@$0A@@std@@@std@@QAE?AV?$_Tree_iterator@V?$_Tree_val@V?$_Tmap_traits@V?$basic_string@DU?$char_traits@D@std@@V?$allocator@D@2@@std@@HU?$less@V?$basic_string@DU?$char_traits@D@std@@V?$allocator@D@2@@std@@@2@V?$allocator@U?$pair@$$CBV?$basic_string@DU?$char_traits@D@std@@V?$allocator@D@2@@std@@H@std@@@2@$0A@@std@@@std@@@2@V?$_Tree_const_iterator@V?$_Tree_val@V?$_Tmap_traits@V?$basic_string@DU?$char_traits@D@std@@V?$allocator@D@2@@std@@HU?$less@V?$basic_string@DU?$char_traits@D@std@@V?$allocator@D@2@@std@@@2@V?$allocator@U?$pair@$$CBV?$basic_string@DU?$char_traits@D@std@@V?$allocator@D@2@@std@@H@std@@@2@$0A@@std@@@std@@@2@0@Z 00407b80 f i HidManager.obj
 0001:00006c40       ?_Lbound@?$_Tree@V?$_Tmap_traits@V?$basic_string@DU?$char_traits@D@std@@V?$allocator@D@2@@std@@HU?$less@V?$basic_string@DU?$char_traits@D@std@@V?$allocator@D@2@@std@@@2@V?$allocator@U?$pair@$$CBV?$basic_string@DU?$char_traits@D@std@@V?$allocator@D@2@@std@@H@std@@@2@$0A@@std@@@std@@IAEPAU_Node@?$_Tree_nod@V?$_Tmap_traits@V?$basic_string@DU?$char_traits@D@std@@V?$allocator@D@2@@std@@HU?$less@V?$basic_string@DU?$char_traits@D@std@@V?$allocator@D@2@@std@@@2@V?$allocator@U?$pair@$$CBV?$basic_string@DU?$char_traits@D@std@@V?$allocator@D@2@@std@@H@std@@@2@$0A@@std@@@2@ABV?$basic_string@DU?$char_traits@D@std@@V?$allocator@D@2@@2@@Z 00407c40 f i HidManager.obj
 0001:00006cc0       ??E?$_Tree_unchecked_const_iterator@V?$_Tree_val@V?$_Tmap_traits@V?$basic_string@DU?$char_traits@D@std@@V?$allocator@D@2@@std@@HU?$less@V?$basic_string@DU?$char_traits@D@std@@V?$allocator@D@2@@std@@@2@V?$allocator@U?$pair@$$CBV?$basic_string@DU?$char_traits@D@std@@V?$allocator@D@2@@std@@H@std@@@2@$0A@@std@@@std@@U_Iterator_base0@2@@std@@QAEAAV01@XZ 00407cc0 f i HidManager.obj
 0001:00006d10       ?allocate@?$allocator@UHARDWARE_ID_INFO@@@std@@QAEPAUHARDWARE_ID_INFO@@I@Z 00407d10 f i HidManager.obj
 0001:00006d70       ?_Erase@?$_Tree@V?$_Tmap_traits@V?$basic_string@DU?$char_traits@D@std@@V?$allocator@D@2@@std@@HU?$less@V?$basic_string@DU?$char_traits@D@std@@V?$allocator@D@2@@std@@@2@V?$allocator@U?$pair@$$CBV?$basic_string@DU?$char_traits@D@std@@V?$allocator@D@2@@std@@H@std@@@2@$0A@@std@@@std@@IAEXPAU_Node@?$_Tree_nod@V?$_Tmap_traits@V?$basic_string@DU?$char_traits@D@std@@V?$allocator@D@2@@std@@HU?$less@V?$basic_string@DU?$char_traits@D@std@@V?$allocator@D@2@@std@@@2@V?$allocator@U?$pair@$$CBV?$basic_string@DU?$char_traits@D@std@@V?$allocator@D@2@@std@@H@std@@@2@$0A@@std@@@2@@Z 00407d70 f i HidManager.obj
 0001:00006de0       ?_Insert@?$_Tree@V?$_Tmap_traits@V?$basic_string@DU?$char_traits@D@std@@V?$allocator@D@2@@std@@HU?$less@V?$basic_string@DU?$char_traits@D@std@@V?$allocator@D@2@@std@@@2@V?$allocator@U?$pair@$$CBV?$basic_string@DU?$char_traits@D@std@@V?$allocator@D@2@@std@@H@std@@@2@$0A@@std@@@std@@QAE?AV?$_Tree_iterator@V?$_Tree_val@V?$_Tmap_traits@V?$basic_string@DU?$char_traits@D@std@@V?$allocator@D@2@@std@@HU?$less@V?$basic_string@DU?$char_traits@D@std@@V?$allocator@D@2@@std@@@2@V?$allocator@U?$pair@$$CBV?$basic_string@DU?$char_traits@D@std@@V?$allocator@D@2@@std@@H@std@@@2@$0A@@std@@@std@@@2@V?$_Tree_const_iterator@V?$_Tree_val@V?$_Tmap_traits@V?$basic_string@DU?$char_traits@D@std@@V?$allocator@D@2@@std@@HU?$less@V?$basic_string@DU?$char_traits@D@std@@V?$allocator@D@2@@std@@@2@V?$allocator@U?$pair@$$CBV?$basic_string@DU?$char_traits@D@std@@V?$allocator@D@2@@std@@H@std@@@2@$0A@@std@@@std@@@2@PAU_Node@?$_Tree_nod@V?$_Tmap_traits@V?$basic_string@DU?$char_traits@D@std@@V?$allocator@D@2@@std@@HU?$less@V?$basic_string@DU?$char_traits@D@std@@V?$allocator@D@2@@std@@@2@V?$allocator@U?$pair@$$CBV?$basic_string@DU?$char_traits@D@std@@V?$allocator@D@2@@std@@H@std@@@2@$0A@@std@@@2@@Z 00407de0 f i HidManager.obj
 0001:00006f50       ?_Linsert@?$_Tree@V?$_Tmap_traits@V?$basic_string@DU?$char_traits@D@std@@V?$allocator@D@2@@std@@HU?$less@V?$basic_string@DU?$char_traits@D@std@@V?$allocator@D@2@@std@@@2@V?$allocator@U?$pair@$$CBV?$basic_string@DU?$char_traits@D@std@@V?$allocator@D@2@@std@@H@std@@@2@$0A@@std@@@std@@QAE?AU?$pair@V?$_Tree_iterator@V?$_Tree_val@V?$_Tmap_traits@V?$basic_string@DU?$char_traits@D@std@@V?$allocator@D@2@@std@@HU?$less@V?$basic_string@DU?$char_traits@D@std@@V?$allocator@D@2@@std@@@2@V?$allocator@U?$pair@$$CBV?$basic_string@DU?$char_traits@D@std@@V?$allocator@D@2@@std@@H@std@@@2@$0A@@std@@@std@@@std@@_N@2@PAU_Node@?$_Tree_nod@V?$_Tmap_traits@V?$basic_string@DU?$char_traits@D@std@@V?$allocator@D@2@@std@@HU?$less@V?$basic_string@DU?$char_traits@D@std@@V?$allocator@D@2@@std@@@2@V?$allocator@U?$pair@$$CBV?$basic_string@DU?$char_traits@D@std@@V?$allocator@D@2@@std@@H@std@@@2@$0A@@std@@@2@_N@Z 00407f50 f i HidManager.obj
 0001:000070f0       ?_Insert@?$_Tree@V?$_Tmap_traits@V?$basic_string@DU?$char_traits@D@std@@V?$allocator@D@2@@std@@HU?$less@V?$basic_string@DU?$char_traits@D@std@@V?$allocator@D@2@@std@@@2@V?$allocator@U?$pair@$$CBV?$basic_string@DU?$char_traits@D@std@@V?$allocator@D@2@@std@@H@std@@@2@$0A@@std@@@std@@IAE?AV?$_Tree_iterator@V?$_Tree_val@V?$_Tmap_traits@V?$basic_string@DU?$char_traits@D@std@@V?$allocator@D@2@@std@@HU?$less@V?$basic_string@DU?$char_traits@D@std@@V?$allocator@D@2@@std@@@2@V?$allocator@U?$pair@$$CBV?$basic_string@DU?$char_traits@D@std@@V?$allocator@D@2@@std@@H@std@@@2@$0A@@std@@@std@@@2@_NPAU_Node@?$_Tree_nod@V?$_Tmap_traits@V?$basic_string@DU?$char_traits@D@std@@V?$allocator@D@2@@std@@HU?$less@V?$basic_string@DU?$char_traits@D@std@@V?$allocator@D@2@@std@@@2@V?$allocator@U?$pair@$$CBV?$basic_string@DU?$char_traits@D@std@@V?$allocator@D@2@@std@@H@std@@@2@$0A@@std@@@2@1@Z 004080f0 f i HidManager.obj
 0001:00007320       ??F?$_Tree_unchecked_const_iterator@V?$_Tree_val@V?$_Tmap_traits@V?$basic_string@DU?$char_traits@D@std@@V?$allocator@D@2@@std@@HU?$less@V?$basic_string@DU?$char_traits@D@std@@V?$allocator@D@2@@std@@@2@V?$allocator@U?$pair@$$CBV?$basic_string@DU?$char_traits@D@std@@V?$allocator@D@2@@std@@H@std@@@2@$0A@@std@@@std@@U_Iterator_base0@2@@std@@QAEAAV01@XZ 00408320 f i HidManager.obj
 0001:00007380       ??$_Buynode@U?$pair@$$CBV?$basic_string@DU?$char_traits@D@std@@V?$allocator@D@2@@std@@H@std@@@?$_Tree_val@V?$_Tmap_traits@V?$basic_string@DU?$char_traits@D@std@@V?$allocator@D@2@@std@@HU?$less@V?$basic_string@DU?$char_traits@D@std@@V?$allocator@D@2@@std@@@2@V?$allocator@U?$pair@$$CBV?$basic_string@DU?$char_traits@D@std@@V?$allocator@D@2@@std@@H@std@@@2@$0A@@std@@@std@@QAEPAU_Node@?$_Tree_nod@V?$_Tmap_traits@V?$basic_string@DU?$char_traits@D@std@@V?$allocator@D@2@@std@@HU?$less@V?$basic_string@DU?$char_traits@D@std@@V?$allocator@D@2@@std@@@2@V?$allocator@U?$pair@$$CBV?$basic_string@DU?$char_traits@D@std@@V?$allocator@D@2@@std@@H@std@@@2@$0A@@std@@@1@$$QAU?$pair@$$CBV?$basic_string@DU?$char_traits@D@std@@V?$allocator@D@2@@std@@H@1@@Z 00408380 f i HidManager.obj
 0001:00007460       ??$_Uninit_move@PAUHARDWARE_ID_INFO@@PAU1@V?$allocator@UHARDWARE_ID_INFO@@@std@@U1@@std@@YAPAUHARDWARE_ID_INFO@@PAU1@00AAV?$allocator@UHARDWARE_ID_INFO@@@0@0U_Nonscalar_ptr_iterator_tag@0@@Z 00408460 f i HidManager.obj
 0001:00007490       ?compare@?$char_traits@D@std@@SAHPBD0I@Z 00408490 f i HidManager.obj
 0001:00007510       ??_GCIpManager@@UAEPAXI@Z  00408510 f i IpManager.obj
 0001:00007510       ??_ECIpManager@@UAEPAXI@Z  00408510 f i  CIL library: CIL module
 0001:00007590       ?CheckIpAddress@CIpManager@@QAE_NPAD@Z 00408590 f   IpManager.obj
 0001:00007660       ?InsertIpAddress@CIpManager@@QAEXPAD@Z 00408660 f   IpManager.obj
 0001:00007810       ??1?$pair@$$CBV?$basic_string@DU?$char_traits@D@std@@V?$allocator@D@2@@std@@H@std@@QAE@XZ 00408810 f i HidManager.obj
 0001:00007810       ??1?$pair@V?$basic_string@DU?$char_traits@D@std@@V?$allocator@D@2@@std@@UIP_ADDRESS_INFO@@@std@@QAE@XZ 00408810 f i IpManager.obj
 0001:00007810       ??1?$basic_string@DU?$char_traits@D@std@@V?$allocator@D@2@@std@@QAE@XZ 00408810 f i pugixml.obj
 0001:00007840       ?RemoveIpAddress@CIpManager@@QAEXPAD@Z 00408840 f   IpManager.obj
 0001:00007910       ?erase@?$_Tree@V?$_Tmap_traits@V?$basic_string@DU?$char_traits@D@std@@V?$allocator@D@2@@std@@UIP_ADDRESS_INFO@@U?$less@V?$basic_string@DU?$char_traits@D@std@@V?$allocator@D@2@@std@@@2@V?$allocator@U?$pair@$$CBV?$basic_string@DU?$char_traits@D@std@@V?$allocator@D@2@@std@@UIP_ADDRESS_INFO@@@std@@@2@$0A@@std@@@std@@QAE?AV?$_Tree_iterator@V?$_Tree_val@V?$_Tmap_traits@V?$basic_string@DU?$char_traits@D@std@@V?$allocator@D@2@@std@@UIP_ADDRESS_INFO@@U?$less@V?$basic_string@DU?$char_traits@D@std@@V?$allocator@D@2@@std@@@2@V?$allocator@U?$pair@$$CBV?$basic_string@DU?$char_traits@D@std@@V?$allocator@D@2@@std@@UIP_ADDRESS_INFO@@@std@@@2@$0A@@std@@@std@@@2@V?$_Tree_const_iterator@V?$_Tree_val@V?$_Tmap_traits@V?$basic_string@DU?$char_traits@D@std@@V?$allocator@D@2@@std@@UIP_ADDRESS_INFO@@U?$less@V?$basic_string@DU?$char_traits@D@std@@V?$allocator@D@2@@std@@@2@V?$allocator@U?$pair@$$CBV?$basic_string@DU?$char_traits@D@std@@V?$allocator@D@2@@std@@UIP_ADDRESS_INFO@@@std@@@2@$0A@@std@@@std@@@2@@Z 00408910 f i IpManager.obj
 0001:00007ba0       ?find@?$_Tree@V?$_Tmap_traits@V?$basic_string@DU?$char_traits@D@std@@V?$allocator@D@2@@std@@UIP_ADDRESS_INFO@@U?$less@V?$basic_string@DU?$char_traits@D@std@@V?$allocator@D@2@@std@@@2@V?$allocator@U?$pair@$$CBV?$basic_string@DU?$char_traits@D@std@@V?$allocator@D@2@@std@@UIP_ADDRESS_INFO@@@std@@@2@$0A@@std@@@std@@QAE?AV?$_Tree_iterator@V?$_Tree_val@V?$_Tmap_traits@V?$basic_string@DU?$char_traits@D@std@@V?$allocator@D@2@@std@@UIP_ADDRESS_INFO@@U?$less@V?$basic_string@DU?$char_traits@D@std@@V?$allocator@D@2@@std@@@2@V?$allocator@U?$pair@$$CBV?$basic_string@DU?$char_traits@D@std@@V?$allocator@D@2@@std@@UIP_ADDRESS_INFO@@@std@@@2@$0A@@std@@@std@@@2@ABV?$basic_string@DU?$char_traits@D@std@@V?$allocator@D@2@@2@@Z 00408ba0 f i IpManager.obj
 0001:00007c30       ?_Lrotate@?$_Tree@V?$_Tmap_traits@V?$basic_string@DU?$char_traits@D@std@@V?$allocator@D@2@@std@@UIP_ADDRESS_INFO@@U?$less@V?$basic_string@DU?$char_traits@D@std@@V?$allocator@D@2@@std@@@2@V?$allocator@U?$pair@$$CBV?$basic_string@DU?$char_traits@D@std@@V?$allocator@D@2@@std@@UIP_ADDRESS_INFO@@@std@@@2@$0A@@std@@@std@@IAEXPAU_Node@?$_Tree_nod@V?$_Tmap_traits@V?$basic_string@DU?$char_traits@D@std@@V?$allocator@D@2@@std@@UIP_ADDRESS_INFO@@U?$less@V?$basic_string@DU?$char_traits@D@std@@V?$allocator@D@2@@std@@@2@V?$allocator@U?$pair@$$CBV?$basic_string@DU?$char_traits@D@std@@V?$allocator@D@2@@std@@UIP_ADDRESS_INFO@@@std@@@2@$0A@@std@@@2@@Z 00408c30 f i IpManager.obj
 0001:00007c90       ?_Rrotate@?$_Tree@V?$_Tmap_traits@V?$basic_string@DU?$char_traits@D@std@@V?$allocator@D@2@@std@@UIP_ADDRESS_INFO@@U?$less@V?$basic_string@DU?$char_traits@D@std@@V?$allocator@D@2@@std@@@2@V?$allocator@U?$pair@$$CBV?$basic_string@DU?$char_traits@D@std@@V?$allocator@D@2@@std@@UIP_ADDRESS_INFO@@@std@@@2@$0A@@std@@@std@@IAEXPAU_Node@?$_Tree_nod@V?$_Tmap_traits@V?$basic_string@DU?$char_traits@D@std@@V?$allocator@D@2@@std@@UIP_ADDRESS_INFO@@U?$less@V?$basic_string@DU?$char_traits@D@std@@V?$allocator@D@2@@std@@@2@V?$allocator@U?$pair@$$CBV?$basic_string@DU?$char_traits@D@std@@V?$allocator@D@2@@std@@UIP_ADDRESS_INFO@@@std@@@2@$0A@@std@@@2@@Z 00408c90 f i IpManager.obj
 0001:00007cf0       ??1?$_Tree_val@V?$_Tmap_traits@H_NU?$less@H@std@@V?$allocator@U?$pair@$$CBH_N@std@@@2@$0A@@std@@@std@@QAE@XZ 00408cf0 f i Protection.obj
 0001:00007cf0       ??1?$_Tree_val@V?$_Tmap_traits@V?$basic_string@DU?$char_traits@D@std@@V?$allocator@D@2@@std@@UIP_ADDRESS_INFO@@U?$less@V?$basic_string@DU?$char_traits@D@std@@V?$allocator@D@2@@std@@@2@V?$allocator@U?$pair@$$CBV?$basic_string@DU?$char_traits@D@std@@V?$allocator@D@2@@std@@UIP_ADDRESS_INFO@@@std@@@2@$0A@@std@@@std@@QAE@XZ 00408cf0 f i IpManager.obj
 0001:00007cf0       ??1?$_Tree_val@V?$_Tmap_traits@KUPROCESS_CACHE_INFO@@U?$less@K@std@@V?$allocator@U?$pair@$$CBKUPROCESS_CACHE_INFO@@@std@@@3@$0A@@std@@@std@@QAE@XZ 00408cf0 f i ProcessManager.obj
 0001:00007cf0       ??1?$_Tree_val@V?$_Tmap_traits@V?$basic_string@DU?$char_traits@D@std@@V?$allocator@D@2@@std@@HU?$less@V?$basic_string@DU?$char_traits@D@std@@V?$allocator@D@2@@std@@@2@V?$allocator@U?$pair@$$CBV?$basic_string@DU?$char_traits@D@std@@V?$allocator@D@2@@std@@H@std@@@2@$0A@@std@@@std@@QAE@XZ 00408cf0 f i HidManager.obj
 0001:00007d00       ?_Max@?$_Tree_val@V?$_Tmap_traits@V?$basic_string@DU?$char_traits@D@std@@V?$allocator@D@2@@std@@UIP_ADDRESS_INFO@@U?$less@V?$basic_string@DU?$char_traits@D@std@@V?$allocator@D@2@@std@@@2@V?$allocator@U?$pair@$$CBV?$basic_string@DU?$char_traits@D@std@@V?$allocator@D@2@@std@@UIP_ADDRESS_INFO@@@std@@@2@$0A@@std@@@std@@SAPAU_Node@?$_Tree_nod@V?$_Tmap_traits@V?$basic_string@DU?$char_traits@D@std@@V?$allocator@D@2@@std@@UIP_ADDRESS_INFO@@U?$less@V?$basic_string@DU?$char_traits@D@std@@V?$allocator@D@2@@std@@@2@V?$allocator@U?$pair@$$CBV?$basic_string@DU?$char_traits@D@std@@V?$allocator@D@2@@std@@UIP_ADDRESS_INFO@@@std@@@2@$0A@@std@@@2@PAU342@@Z 00408d00 f i IpManager.obj
 0001:00007d20       ?erase@?$_Tree@V?$_Tmap_traits@V?$basic_string@DU?$char_traits@D@std@@V?$allocator@D@2@@std@@UIP_ADDRESS_INFO@@U?$less@V?$basic_string@DU?$char_traits@D@std@@V?$allocator@D@2@@std@@@2@V?$allocator@U?$pair@$$CBV?$basic_string@DU?$char_traits@D@std@@V?$allocator@D@2@@std@@UIP_ADDRESS_INFO@@@std@@@2@$0A@@std@@@std@@QAE?AV?$_Tree_iterator@V?$_Tree_val@V?$_Tmap_traits@V?$basic_string@DU?$char_traits@D@std@@V?$allocator@D@2@@std@@UIP_ADDRESS_INFO@@U?$less@V?$basic_string@DU?$char_traits@D@std@@V?$allocator@D@2@@std@@@2@V?$allocator@U?$pair@$$CBV?$basic_string@DU?$char_traits@D@std@@V?$allocator@D@2@@std@@UIP_ADDRESS_INFO@@@std@@@2@$0A@@std@@@std@@@2@V?$_Tree_const_iterator@V?$_Tree_val@V?$_Tmap_traits@V?$basic_string@DU?$char_traits@D@std@@V?$allocator@D@2@@std@@UIP_ADDRESS_INFO@@U?$less@V?$basic_string@DU?$char_traits@D@std@@V?$allocator@D@2@@std@@@2@V?$allocator@U?$pair@$$CBV?$basic_string@DU?$char_traits@D@std@@V?$allocator@D@2@@std@@UIP_ADDRESS_INFO@@@std@@@2@$0A@@std@@@std@@@2@0@Z 00408d20 f i IpManager.obj
 0001:00007de0       ?_Lbound@?$_Tree@V?$_Tmap_traits@V?$basic_string@DU?$char_traits@D@std@@V?$allocator@D@2@@std@@UIP_ADDRESS_INFO@@U?$less@V?$basic_string@DU?$char_traits@D@std@@V?$allocator@D@2@@std@@@2@V?$allocator@U?$pair@$$CBV?$basic_string@DU?$char_traits@D@std@@V?$allocator@D@2@@std@@UIP_ADDRESS_INFO@@@std@@@2@$0A@@std@@@std@@IAEPAU_Node@?$_Tree_nod@V?$_Tmap_traits@V?$basic_string@DU?$char_traits@D@std@@V?$allocator@D@2@@std@@UIP_ADDRESS_INFO@@U?$less@V?$basic_string@DU?$char_traits@D@std@@V?$allocator@D@2@@std@@@2@V?$allocator@U?$pair@$$CBV?$basic_string@DU?$char_traits@D@std@@V?$allocator@D@2@@std@@UIP_ADDRESS_INFO@@@std@@@2@$0A@@std@@@2@ABV?$basic_string@DU?$char_traits@D@std@@V?$allocator@D@2@@2@@Z 00408de0 f i IpManager.obj
 0001:00007e60       ??E?$_Tree_unchecked_const_iterator@V?$_Tree_val@V?$_Tmap_traits@V?$basic_string@DU?$char_traits@D@std@@V?$allocator@D@2@@std@@UIP_ADDRESS_INFO@@U?$less@V?$basic_string@DU?$char_traits@D@std@@V?$allocator@D@2@@std@@@2@V?$allocator@U?$pair@$$CBV?$basic_string@DU?$char_traits@D@std@@V?$allocator@D@2@@std@@UIP_ADDRESS_INFO@@@std@@@2@$0A@@std@@@std@@U_Iterator_base0@2@@std@@QAEAAV01@XZ 00408e60 f i IpManager.obj
 0001:00007eb0       ?_Erase@?$_Tree@V?$_Tmap_traits@V?$basic_string@DU?$char_traits@D@std@@V?$allocator@D@2@@std@@UIP_ADDRESS_INFO@@U?$less@V?$basic_string@DU?$char_traits@D@std@@V?$allocator@D@2@@std@@@2@V?$allocator@U?$pair@$$CBV?$basic_string@DU?$char_traits@D@std@@V?$allocator@D@2@@std@@UIP_ADDRESS_INFO@@@std@@@2@$0A@@std@@@std@@IAEXPAU_Node@?$_Tree_nod@V?$_Tmap_traits@V?$basic_string@DU?$char_traits@D@std@@V?$allocator@D@2@@std@@UIP_ADDRESS_INFO@@U?$less@V?$basic_string@DU?$char_traits@D@std@@V?$allocator@D@2@@std@@@2@V?$allocator@U?$pair@$$CBV?$basic_string@DU?$char_traits@D@std@@V?$allocator@D@2@@std@@UIP_ADDRESS_INFO@@@std@@@2@$0A@@std@@@2@@Z 00408eb0 f i IpManager.obj
 0001:00007f20       ?_Linsert@?$_Tree@V?$_Tmap_traits@V?$basic_string@DU?$char_traits@D@std@@V?$allocator@D@2@@std@@UIP_ADDRESS_INFO@@U?$less@V?$basic_string@DU?$char_traits@D@std@@V?$allocator@D@2@@std@@@2@V?$allocator@U?$pair@$$CBV?$basic_string@DU?$char_traits@D@std@@V?$allocator@D@2@@std@@UIP_ADDRESS_INFO@@@std@@@2@$0A@@std@@@std@@QAE?AU?$pair@V?$_Tree_iterator@V?$_Tree_val@V?$_Tmap_traits@V?$basic_string@DU?$char_traits@D@std@@V?$allocator@D@2@@std@@UIP_ADDRESS_INFO@@U?$less@V?$basic_string@DU?$char_traits@D@std@@V?$allocator@D@2@@std@@@2@V?$allocator@U?$pair@$$CBV?$basic_string@DU?$char_traits@D@std@@V?$allocator@D@2@@std@@UIP_ADDRESS_INFO@@@std@@@2@$0A@@std@@@std@@@std@@_N@2@PAU_Node@?$_Tree_nod@V?$_Tmap_traits@V?$basic_string@DU?$char_traits@D@std@@V?$allocator@D@2@@std@@UIP_ADDRESS_INFO@@U?$less@V?$basic_string@DU?$char_traits@D@std@@V?$allocator@D@2@@std@@@2@V?$allocator@U?$pair@$$CBV?$basic_string@DU?$char_traits@D@std@@V?$allocator@D@2@@std@@UIP_ADDRESS_INFO@@@std@@@2@$0A@@std@@@2@_N@Z 00408f20 f i IpManager.obj
 0001:000080c0       ?_Insert@?$_Tree@V?$_Tmap_traits@V?$basic_string@DU?$char_traits@D@std@@V?$allocator@D@2@@std@@UIP_ADDRESS_INFO@@U?$less@V?$basic_string@DU?$char_traits@D@std@@V?$allocator@D@2@@std@@@2@V?$allocator@U?$pair@$$CBV?$basic_string@DU?$char_traits@D@std@@V?$allocator@D@2@@std@@UIP_ADDRESS_INFO@@@std@@@2@$0A@@std@@@std@@IAE?AV?$_Tree_iterator@V?$_Tree_val@V?$_Tmap_traits@V?$basic_string@DU?$char_traits@D@std@@V?$allocator@D@2@@std@@UIP_ADDRESS_INFO@@U?$less@V?$basic_string@DU?$char_traits@D@std@@V?$allocator@D@2@@std@@@2@V?$allocator@U?$pair@$$CBV?$basic_string@DU?$char_traits@D@std@@V?$allocator@D@2@@std@@UIP_ADDRESS_INFO@@@std@@@2@$0A@@std@@@std@@@2@_NPAU_Node@?$_Tree_nod@V?$_Tmap_traits@V?$basic_string@DU?$char_traits@D@std@@V?$allocator@D@2@@std@@UIP_ADDRESS_INFO@@U?$less@V?$basic_string@DU?$char_traits@D@std@@V?$allocator@D@2@@std@@@2@V?$allocator@U?$pair@$$CBV?$basic_string@DU?$char_traits@D@std@@V?$allocator@D@2@@std@@UIP_ADDRESS_INFO@@@std@@@2@$0A@@std@@@2@1@Z 004090c0 f i IpManager.obj
 0001:000082f0       ??F?$_Tree_unchecked_const_iterator@V?$_Tree_val@V?$_Tmap_traits@V?$basic_string@DU?$char_traits@D@std@@V?$allocator@D@2@@std@@UIP_ADDRESS_INFO@@U?$less@V?$basic_string@DU?$char_traits@D@std@@V?$allocator@D@2@@std@@@2@V?$allocator@U?$pair@$$CBV?$basic_string@DU?$char_traits@D@std@@V?$allocator@D@2@@std@@UIP_ADDRESS_INFO@@@std@@@2@$0A@@std@@@std@@U_Iterator_base0@2@@std@@QAEAAV01@XZ 004092f0 f i IpManager.obj
 0001:00008350       ??$_Buynode@U?$pair@V?$basic_string@DU?$char_traits@D@std@@V?$allocator@D@2@@std@@UIP_ADDRESS_INFO@@@std@@@?$_Tree_val@V?$_Tmap_traits@V?$basic_string@DU?$char_traits@D@std@@V?$allocator@D@2@@std@@UIP_ADDRESS_INFO@@U?$less@V?$basic_string@DU?$char_traits@D@std@@V?$allocator@D@2@@std@@@2@V?$allocator@U?$pair@$$CBV?$basic_string@DU?$char_traits@D@std@@V?$allocator@D@2@@std@@UIP_ADDRESS_INFO@@@std@@@2@$0A@@std@@@std@@QAEPAU_Node@?$_Tree_nod@V?$_Tmap_traits@V?$basic_string@DU?$char_traits@D@std@@V?$allocator@D@2@@std@@UIP_ADDRESS_INFO@@U?$less@V?$basic_string@DU?$char_traits@D@std@@V?$allocator@D@2@@std@@@2@V?$allocator@U?$pair@$$CBV?$basic_string@DU?$char_traits@D@std@@V?$allocator@D@2@@std@@UIP_ADDRESS_INFO@@@std@@@2@$0A@@std@@@1@$$QAU?$pair@V?$basic_string@DU?$char_traits@D@std@@V?$allocator@D@2@@std@@UIP_ADDRESS_INFO@@@1@@Z 00409350 f i IpManager.obj
 0001:00008440       ??_ECLog@@UAEPAXI@Z        00409440 f i  CIL library: CIL module
 0001:00008440       ??_GCLog@@UAEPAXI@Z        00409440 f i Log.obj
 0001:00008470       ??1CLog@@UAE@XZ            00409470 f   Log.obj
 0001:000084c0       ?AddLog@CLog@@QAEXHPAD@Z   004094c0 f   Log.obj
 0001:000085e0       ?Output@CLog@@QAAXW4eLogType@@PADZZ 004095e0 f   Log.obj
 0001:000087f0       ??_GCMemScript@@UAEPAXI@Z  004097f0 f i MemScript.obj
 0001:000087f0       ??_ECMemScript@@UAEPAXI@Z  004097f0 f i  CIL library: CIL module
 0001:00008830       ?SetBuffer@CMemScript@@QAE_NPADH@Z 00409830 f   MemScript.obj
 0001:00008950       ?GetToken@CMemScript@@QAEHXZ 00409950 f   MemScript.obj
 0001:00008c60       ??$sprintf_s@$0BAE@@@YAHAAY0BAE@DPBDZZ 00409c60 f i MemScript.obj
 0001:00008c80       ?DumpExceptionFilter@@YGJPAU_EXCEPTION_POINTERS@@@Z 00409c80 f   MiniDump.obj
 0001:00008d90       ?RecvProcessList@CProcessListInfo@@QAEXPAUPMSG_PROCESS_INFO_DATA_RECV@@H@Z 00409d90 f   ProcessListInfo.obj
 0001:00009130       ?SendRequest@CProcessListInfo@@QAEXHW4RequestType@@@Z 0040a130 f   ProcessListInfo.obj
 0001:000091d0       ?RecvProcessDumpRequest@CProcessListInfo@@QAEXPAUPMSG_GET_PROCESS_DUMP_RECV@@@Z 0040a1d0 f   ProcessListInfo.obj
 0001:00009230       ?RecvProcessClass@CProcessListInfo@@QAEXPAUPMSG_WINDOW_CLASS_SEND@@@Z 0040a230 f   ProcessListInfo.obj
 0001:000094b0       ?RecvFile@CProcessListInfo@@QAEXPAUPMSG_FILE_RECV@@@Z 0040a4b0 f   ProcessListInfo.obj
 0001:00009700       ?SetInfoByIndex@CProcessListInfo@@QAEXH@Z 0040a700 f   ProcessListInfo.obj
 0001:00009780       ??0?$basic_ofstream@DU?$char_traits@D@std@@@std@@QAE@PBDHH@Z 0040a780 f i ProcessListInfo.obj
 0001:00009870       ?close@?$basic_ofstream@DU?$char_traits@D@std@@@std@@QAEXXZ 0040a870 f i ProcessListInfo.obj
 0001:000098e0       ?reserve@?$vector@UPROCESS_INFO_DATA@@V?$allocator@UPROCESS_INFO_DATA@@@std@@@std@@QAEXI@Z 0040a8e0 f i ProcessListInfo.obj
 0001:000099e0       ?allocate@?$allocator@UPROCESS_INFO_DATA@@@std@@QAEPAUPROCESS_INFO_DATA@@I@Z 0040a9e0 f i ProcessListInfo.obj
 0001:00009a40       ??$_Uninit_move@PAUPROCESS_INFO_DATA@@PAU1@V?$allocator@UPROCESS_INFO_DATA@@@std@@U1@@std@@YAPAUPROCESS_INFO_DATA@@PAU1@00AAV?$allocator@UPROCESS_INFO_DATA@@@0@0U_Nonscalar_ptr_iterator_tag@0@@Z 0040aa40 f i ProcessListInfo.obj
 0001:00009a70       ??0CProcessManager@@QAE@XZ 0040aa70 f   ProcessManager.obj
 0001:00009b50       ??_GCProcessManager@@UAEPAXI@Z 0040ab50 f i ProcessManager.obj
 0001:00009b50       ??_ECProcessManager@@UAEPAXI@Z 0040ab50 f i  CIL library: CIL module
 0001:00009bf0       ?CheckProcess@CProcessManager@@QAE_NXZ 0040abf0 f   ProcessManager.obj
 0001:00009db0       ?CheckProcessModule@CProcessManager@@QAE_NPAXPAD@Z 0040adb0 f   ProcessManager.obj
 0001:00009e90       ?StartProcessModule@CProcessManager@@QAE_NPAXPADH@Z 0040ae90 f   ProcessManager.obj
 0001:00009ff0       ?ClearProcessCache@CProcessManager@@QAEXXZ 0040aff0 f   ProcessManager.obj
 0001:0000a090       ?InsertProcessCacheInfo@CProcessManager@@QAEXUPROCESS_CACHE_INFO@@@Z 0040b090 f   ProcessManager.obj
 0001:0000a120       ?AddProcessCache@CProcessManager@@QAE_NK@Z 0040b120 f   ProcessManager.obj
 0001:0000a180       ?erase@?$_Tree@V?$_Tmap_traits@KUPROCESS_CACHE_INFO@@U?$less@K@std@@V?$allocator@U?$pair@$$CBKUPROCESS_CACHE_INFO@@@std@@@3@$0A@@std@@@std@@QAE?AV?$_Tree_iterator@V?$_Tree_val@V?$_Tmap_traits@KUPROCESS_CACHE_INFO@@U?$less@K@std@@V?$allocator@U?$pair@$$CBKUPROCESS_CACHE_INFO@@@std@@@3@$0A@@std@@@std@@@2@V?$_Tree_const_iterator@V?$_Tree_val@V?$_Tmap_traits@KUPROCESS_CACHE_INFO@@U?$less@K@std@@V?$allocator@U?$pair@$$CBKUPROCESS_CACHE_INFO@@@std@@@3@$0A@@std@@@std@@@2@@Z 0040b180 f i ProcessManager.obj
 0001:0000a3e0       ?find@?$_Tree@V?$_Tmap_traits@KUPROCESS_CACHE_INFO@@U?$less@K@std@@V?$allocator@U?$pair@$$CBKUPROCESS_CACHE_INFO@@@std@@@3@$0A@@std@@@std@@QAE?AV?$_Tree_iterator@V?$_Tree_val@V?$_Tmap_traits@KUPROCESS_CACHE_INFO@@U?$less@K@std@@V?$allocator@U?$pair@$$CBKUPROCESS_CACHE_INFO@@@std@@@3@$0A@@std@@@std@@@2@ABK@Z 0040b3e0 f i ProcessManager.obj
 0001:0000a440       ?_Lrotate@?$_Tree@V?$_Tmap_traits@KUPROCESS_CACHE_INFO@@U?$less@K@std@@V?$allocator@U?$pair@$$CBKUPROCESS_CACHE_INFO@@@std@@@3@$0A@@std@@@std@@IAEXPAU_Node@?$_Tree_nod@V?$_Tmap_traits@KUPROCESS_CACHE_INFO@@U?$less@K@std@@V?$allocator@U?$pair@$$CBKUPROCESS_CACHE_INFO@@@std@@@3@$0A@@std@@@2@@Z 0040b440 f i ProcessManager.obj
 0001:0000a4a0       ?_Rrotate@?$_Tree@V?$_Tmap_traits@KUPROCESS_CACHE_INFO@@U?$less@K@std@@V?$allocator@U?$pair@$$CBKUPROCESS_CACHE_INFO@@@std@@@3@$0A@@std@@@std@@IAEXPAU_Node@?$_Tree_nod@V?$_Tmap_traits@KUPROCESS_CACHE_INFO@@U?$less@K@std@@V?$allocator@U?$pair@$$CBKUPROCESS_CACHE_INFO@@@std@@@3@$0A@@std@@@2@@Z 0040b4a0 f i ProcessManager.obj
 0001:0000a500       ?_Max@?$_Tree_val@V?$_Tmap_traits@KUPROCESS_CACHE_INFO@@U?$less@K@std@@V?$allocator@U?$pair@$$CBKUPROCESS_CACHE_INFO@@@std@@@3@$0A@@std@@@std@@SAPAU_Node@?$_Tree_nod@V?$_Tmap_traits@KUPROCESS_CACHE_INFO@@U?$less@K@std@@V?$allocator@U?$pair@$$CBKUPROCESS_CACHE_INFO@@@std@@@3@$0A@@std@@@2@PAU342@@Z 0040b500 f i ProcessManager.obj
 0001:0000a520       ?erase@?$_Tree@V?$_Tmap_traits@KUPROCESS_CACHE_INFO@@U?$less@K@std@@V?$allocator@U?$pair@$$CBKUPROCESS_CACHE_INFO@@@std@@@3@$0A@@std@@@std@@QAE?AV?$_Tree_iterator@V?$_Tree_val@V?$_Tmap_traits@KUPROCESS_CACHE_INFO@@U?$less@K@std@@V?$allocator@U?$pair@$$CBKUPROCESS_CACHE_INFO@@@std@@@3@$0A@@std@@@std@@@2@V?$_Tree_const_iterator@V?$_Tree_val@V?$_Tmap_traits@KUPROCESS_CACHE_INFO@@U?$less@K@std@@V?$allocator@U?$pair@$$CBKUPROCESS_CACHE_INFO@@@std@@@3@$0A@@std@@@std@@@2@0@Z 0040b520 f i ProcessManager.obj
 0001:0000a5c0       ??E?$_Tree_unchecked_const_iterator@V?$_Tree_val@V?$_Tmap_traits@KUPROCESS_CACHE_INFO@@U?$less@K@std@@V?$allocator@U?$pair@$$CBKUPROCESS_CACHE_INFO@@@std@@@3@$0A@@std@@@std@@U_Iterator_base0@2@@std@@QAEAAV01@XZ 0040b5c0 f i ProcessManager.obj
 0001:0000a610       ?clear@?$_Tree@V?$_Tmap_traits@KUPROCESS_CACHE_INFO@@U?$less@K@std@@V?$allocator@U?$pair@$$CBKUPROCESS_CACHE_INFO@@@std@@@3@$0A@@std@@@std@@QAEXXZ 0040b610 f i ProcessManager.obj
 0001:0000a660       ?_Erase@?$_Tree@V?$_Tmap_traits@KUPROCESS_CACHE_INFO@@U?$less@K@std@@V?$allocator@U?$pair@$$CBKUPROCESS_CACHE_INFO@@@std@@@3@$0A@@std@@@std@@IAEXPAU_Node@?$_Tree_nod@V?$_Tmap_traits@KUPROCESS_CACHE_INFO@@U?$less@K@std@@V?$allocator@U?$pair@$$CBKUPROCESS_CACHE_INFO@@@std@@@3@$0A@@std@@@2@@Z 0040b660 f i ProcessManager.obj
 0001:0000a6a0       ?_Linsert@?$_Tree@V?$_Tmap_traits@KUPROCESS_CACHE_INFO@@U?$less@K@std@@V?$allocator@U?$pair@$$CBKUPROCESS_CACHE_INFO@@@std@@@3@$0A@@std@@@std@@QAE?AU?$pair@V?$_Tree_iterator@V?$_Tree_val@V?$_Tmap_traits@KUPROCESS_CACHE_INFO@@U?$less@K@std@@V?$allocator@U?$pair@$$CBKUPROCESS_CACHE_INFO@@@std@@@3@$0A@@std@@@std@@@std@@_N@2@PAU_Node@?$_Tree_nod@V?$_Tmap_traits@KUPROCESS_CACHE_INFO@@U?$less@K@std@@V?$allocator@U?$pair@$$CBKUPROCESS_CACHE_INFO@@@std@@@3@$0A@@std@@@2@_N@Z 0040b6a0 f i ProcessManager.obj
 0001:0000a770       ?_Insert@?$_Tree@V?$_Tmap_traits@KUPROCESS_CACHE_INFO@@U?$less@K@std@@V?$allocator@U?$pair@$$CBKUPROCESS_CACHE_INFO@@@std@@@3@$0A@@std@@@std@@IAE?AV?$_Tree_iterator@V?$_Tree_val@V?$_Tmap_traits@KUPROCESS_CACHE_INFO@@U?$less@K@std@@V?$allocator@U?$pair@$$CBKUPROCESS_CACHE_INFO@@@std@@@3@$0A@@std@@@std@@@2@_NPAU_Node@?$_Tree_nod@V?$_Tmap_traits@KUPROCESS_CACHE_INFO@@U?$less@K@std@@V?$allocator@U?$pair@$$CBKUPROCESS_CACHE_INFO@@@std@@@3@$0A@@std@@@2@1@Z 0040b770 f i ProcessManager.obj
 0001:0000a990       ??F?$_Tree_unchecked_const_iterator@V?$_Tree_val@V?$_Tmap_traits@KUPROCESS_CACHE_INFO@@U?$less@K@std@@V?$allocator@U?$pair@$$CBKUPROCESS_CACHE_INFO@@@std@@@3@$0A@@std@@@std@@U_Iterator_base0@2@@std@@QAEAAV01@XZ 0040b990 f i ProcessManager.obj
 0001:0000a9f0       ??$_Buynode@U?$pair@KUPROCESS_CACHE_INFO@@@std@@@?$_Tree_val@V?$_Tmap_traits@KUPROCESS_CACHE_INFO@@U?$less@K@std@@V?$allocator@U?$pair@$$CBKUPROCESS_CACHE_INFO@@@std@@@3@$0A@@std@@@std@@QAEPAU_Node@?$_Tree_nod@V?$_Tmap_traits@KUPROCESS_CACHE_INFO@@U?$less@K@std@@V?$allocator@U?$pair@$$CBKUPROCESS_CACHE_INFO@@@std@@@3@$0A@@std@@@1@$$QAU?$pair@KUPROCESS_CACHE_INFO@@@1@@Z 0040b9f0 f i ProcessManager.obj
 0001:0000aa60       ??0CProtection@@QAE@XZ     0040ba60 f   Protection.obj
 0001:0000ac20       ??_ECProtection@@UAEPAXI@Z 0040bc20 f i  CIL library: CIL module
 0001:0000ac20       ??_GCProtection@@UAEPAXI@Z 0040bc20 f i Protection.obj
 0001:0000acb0       ??1?$map@H_NU?$less@H@std@@V?$allocator@U?$pair@$$CBH_N@std@@@2@@std@@QAE@XZ 0040bcb0 f i Protection.obj
 0001:0000ad10       ?offline_activation@CProtection@@QAEXPAD@Z 0040bd10 f   Protection.obj
 0001:0000adc0       ?clear@?$_Tree@V?$_Tmap_traits@H_NU?$less@H@std@@V?$allocator@U?$pair@$$CBH_N@std@@@2@$0A@@std@@@std@@QAEXXZ 0040bdc0 f i Protection.obj
 0001:0000ae10       ?find@?$_Tree@V?$_Tmap_traits@H_NU?$less@H@std@@V?$allocator@U?$pair@$$CBH_N@std@@@2@$0A@@std@@@std@@QAE?AV?$_Tree_iterator@V?$_Tree_val@V?$_Tmap_traits@H_NU?$less@H@std@@V?$allocator@U?$pair@$$CBH_N@std@@@2@$0A@@std@@@std@@@2@ABH@Z 0040be10 f i Protection.obj
 0001:0000ae70       ?_Erase@?$_Tree@V?$_Tmap_traits@H_NU?$less@H@std@@V?$allocator@U?$pair@$$CBH_N@std@@@2@$0A@@std@@@std@@IAEXPAU_Node@?$_Tree_nod@V?$_Tmap_traits@H_NU?$less@H@std@@V?$allocator@U?$pair@$$CBH_N@std@@@2@$0A@@std@@@2@@Z 0040be70 f i Protection.obj
 0001:0000aeb0       ?erase@?$_Tree@V?$_Tmap_traits@H_NU?$less@H@std@@V?$allocator@U?$pair@$$CBH_N@std@@@2@$0A@@std@@@std@@QAE?AV?$_Tree_iterator@V?$_Tree_val@V?$_Tmap_traits@H_NU?$less@H@std@@V?$allocator@U?$pair@$$CBH_N@std@@@2@$0A@@std@@@std@@@2@V?$_Tree_const_iterator@V?$_Tree_val@V?$_Tmap_traits@H_NU?$less@H@std@@V?$allocator@U?$pair@$$CBH_N@std@@@2@$0A@@std@@@std@@@2@0@Z 0040beb0 f i Protection.obj
 0001:0000af50       ?erase@?$_Tree@V?$_Tmap_traits@H_NU?$less@H@std@@V?$allocator@U?$pair@$$CBH_N@std@@@2@$0A@@std@@@std@@QAE?AV?$_Tree_iterator@V?$_Tree_val@V?$_Tmap_traits@H_NU?$less@H@std@@V?$allocator@U?$pair@$$CBH_N@std@@@2@$0A@@std@@@std@@@2@V?$_Tree_const_iterator@V?$_Tree_val@V?$_Tmap_traits@H_NU?$less@H@std@@V?$allocator@U?$pair@$$CBH_N@std@@@2@$0A@@std@@@std@@@2@@Z 0040bf50 f i Protection.obj
 0001:0000b1b0       ?_Lrotate@?$_Tree@V?$_Tmap_traits@H_NU?$less@H@std@@V?$allocator@U?$pair@$$CBH_N@std@@@2@$0A@@std@@@std@@IAEXPAU_Node@?$_Tree_nod@V?$_Tmap_traits@H_NU?$less@H@std@@V?$allocator@U?$pair@$$CBH_N@std@@@2@$0A@@std@@@2@@Z 0040c1b0 f i Protection.obj
 0001:0000b210       ?_Rrotate@?$_Tree@V?$_Tmap_traits@H_NU?$less@H@std@@V?$allocator@U?$pair@$$CBH_N@std@@@2@$0A@@std@@@std@@IAEXPAU_Node@?$_Tree_nod@V?$_Tmap_traits@H_NU?$less@H@std@@V?$allocator@U?$pair@$$CBH_N@std@@@2@$0A@@std@@@2@@Z 0040c210 f i Protection.obj
 0001:0000b270       ?_Max@?$_Tree_val@V?$_Tmap_traits@H_NU?$less@H@std@@V?$allocator@U?$pair@$$CBH_N@std@@@2@$0A@@std@@@std@@SAPAU_Node@?$_Tree_nod@V?$_Tmap_traits@H_NU?$less@H@std@@V?$allocator@U?$pair@$$CBH_N@std@@@2@$0A@@std@@@2@PAU342@@Z 0040c270 f i Protection.obj
 0001:0000b290       ??E?$_Tree_unchecked_const_iterator@V?$_Tree_val@V?$_Tmap_traits@H_NU?$less@H@std@@V?$allocator@U?$pair@$$CBH_N@std@@@2@$0A@@std@@@std@@U_Iterator_base0@2@@std@@QAEAAV01@XZ 0040c290 f i Protection.obj
 0001:0000b2e0       ?_Linsert@?$_Tree@V?$_Tmap_traits@H_NU?$less@H@std@@V?$allocator@U?$pair@$$CBH_N@std@@@2@$0A@@std@@@std@@QAE?AU?$pair@V?$_Tree_iterator@V?$_Tree_val@V?$_Tmap_traits@H_NU?$less@H@std@@V?$allocator@U?$pair@$$CBH_N@std@@@2@$0A@@std@@@std@@@std@@_N@2@PAU_Node@?$_Tree_nod@V?$_Tmap_traits@H_NU?$less@H@std@@V?$allocator@U?$pair@$$CBH_N@std@@@2@$0A@@std@@@2@_N@Z 0040c2e0 f i Protection.obj
 0001:0000b3b0       ?_Insert@?$_Tree@V?$_Tmap_traits@H_NU?$less@H@std@@V?$allocator@U?$pair@$$CBH_N@std@@@2@$0A@@std@@@std@@IAE?AV?$_Tree_iterator@V?$_Tree_val@V?$_Tmap_traits@H_NU?$less@H@std@@V?$allocator@U?$pair@$$CBH_N@std@@@2@$0A@@std@@@std@@@2@_NPAU_Node@?$_Tree_nod@V?$_Tmap_traits@H_NU?$less@H@std@@V?$allocator@U?$pair@$$CBH_N@std@@@2@$0A@@std@@@2@1@Z 0040c3b0 f i Protection.obj
 0001:0000b5d0       ??F?$_Tree_unchecked_const_iterator@V?$_Tree_val@V?$_Tmap_traits@H_NU?$less@H@std@@V?$allocator@U?$pair@$$CBH_N@std@@@2@$0A@@std@@@std@@U_Iterator_base0@2@@std@@QAEAAV01@XZ 0040c5d0 f i Protection.obj
 0001:0000b630       ??$_Buynode@U?$pair@H_N@std@@@?$_Tree_val@V?$_Tmap_traits@H_NU?$less@H@std@@V?$allocator@U?$pair@$$CBH_N@std@@@2@$0A@@std@@@std@@QAEPAU_Node@?$_Tree_nod@V?$_Tmap_traits@H_NU?$less@H@std@@V?$allocator@U?$pair@$$CBH_N@std@@@2@$0A@@std@@@1@$$QAU?$pair@H_N@1@@Z 0040c630 f i Protection.obj
 0001:0000b6a0       ??_ECQueue@@UAEPAXI@Z      0040c6a0 f i  CIL library: CIL module
 0001:0000b6a0       ??_GCQueue@@UAEPAXI@Z      0040c6a0 f i Queue.obj
 0001:0000b730       ??1?$queue@UQUEUE_INFO@@V?$deque@UQUEUE_INFO@@V?$allocator@UQUEUE_INFO@@@std@@@std@@@std@@QAE@XZ 0040c730 f i Queue.obj
 0001:0000b750       ??1CQueue@@UAE@XZ          0040c750 f   Queue.obj
 0001:0000b7d0       ?ClearQueue@CQueue@@QAEXXZ 0040c7d0 f   Queue.obj
 0001:0000b8e0       ?_Tidy@?$deque@UQUEUE_INFO@@V?$allocator@UQUEUE_INFO@@@std@@@std@@IAEXXZ 0040c8e0 f i Queue.obj
 0001:0000b950       ?begin@?$deque@UQUEUE_INFO@@V?$allocator@UQUEUE_INFO@@@std@@@std@@QAE?AV?$_Deque_iterator@UQUEUE_INFO@@V?$allocator@UQUEUE_INFO@@@std@@@2@XZ 0040c950 f i Queue.obj
 0001:0000b970       ?_Growmap@?$deque@UQUEUE_INFO@@V?$allocator@UQUEUE_INFO@@@std@@@std@@IAEXI@Z 0040c970 f i Queue.obj
 0001:0000bb00       ??_ECReadFiles@@UAEPAXI@Z  0040cb00 f i  CIL library: CIL module
 0001:0000bb00       ??_GCReadFiles@@UAEPAXI@Z  0040cb00 f i ReadFiles.obj
 0001:0000bb30       ??1CReadFiles@@UAE@XZ      0040cb30 f   ReadFiles.obj
 0001:0000bba0       ?DumpList@CReadFiles@@QAEXPAD@Z 0040cba0 f   ReadFiles.obj
 0001:0000be50       ?ChecksumList@CReadFiles@@QAEXPAD@Z 0040ce50 f   ReadFiles.obj
 0001:0000bfc0       ?InternalList@CReadFiles@@QAEXPAD@Z 0040cfc0 f   ReadFiles.obj
 0001:0000c1e0       ?WindowList@CReadFiles@@QAEXPAD@Z 0040d1e0 f   ReadFiles.obj
 0001:0000c330       ?UpdateInternalList@CReadFiles@@QAEXXZ 0040d330 f   ReadFiles.obj
 0001:0000c5f0       ?push_back@?$vector@UCSUM_LIST_INFO@@V?$allocator@UCSUM_LIST_INFO@@@std@@@std@@QAEXABUCSUM_LIST_INFO@@@Z 0040d5f0 f i ReadFiles.obj
 0001:0000c650       ?clear@?$vector@UCSUM_LIST_INFO@@V?$allocator@UCSUM_LIST_INFO@@@std@@@std@@QAEXXZ 0040d650 f i ReadFiles.obj
 0001:0000c6a0       ?clear@?$vector@UITRN_LIST_INFO@@V?$allocator@UITRN_LIST_INFO@@@std@@@std@@QAEXXZ 0040d6a0 f i ReadFiles.obj
 0001:0000c6f0       ?push_back@?$vector@UWNDW_LIST_INFO@@V?$allocator@UWNDW_LIST_INFO@@@std@@@std@@QAEXABUWNDW_LIST_INFO@@@Z 0040d6f0 f i ReadFiles.obj
 0001:0000c750       ?clear@?$vector@UWNDW_LIST_INFO@@V?$allocator@UWNDW_LIST_INFO@@@std@@@std@@QAEXXZ 0040d750 f i ReadFiles.obj
 0001:0000c7a0       ?_Reserve@?$vector@UDUMP_LIST_INFO@@V?$allocator@UDUMP_LIST_INFO@@@std@@@std@@IAEXI@Z 0040d7a0 f i ReadFiles.obj
 0001:0000c810       ?_Reserve@?$vector@UCSUM_LIST_INFO@@V?$allocator@UCSUM_LIST_INFO@@@std@@@std@@IAEXI@Z 0040d810 f i ReadFiles.obj
 0001:0000c880       ?_Reserve@?$vector@UITRN_LIST_INFO@@V?$allocator@UITRN_LIST_INFO@@@std@@@std@@IAEXI@Z 0040d880 f i ReadFiles.obj
 0001:0000c8f0       ?_Reserve@?$vector@UWNDW_LIST_INFO@@V?$allocator@UWNDW_LIST_INFO@@@std@@@std@@IAEXI@Z 0040d8f0 f i ReadFiles.obj
 0001:0000c960       ?reserve@?$vector@UDUMP_LIST_INFO@@V?$allocator@UDUMP_LIST_INFO@@@std@@@std@@QAEXI@Z 0040d960 f i ReadFiles.obj
 0001:0000ca50       ?reserve@?$vector@UCSUM_LIST_INFO@@V?$allocator@UCSUM_LIST_INFO@@@std@@@std@@QAEXI@Z 0040da50 f i ReadFiles.obj
 0001:0000cb40       ?reserve@?$vector@UITRN_LIST_INFO@@V?$allocator@UITRN_LIST_INFO@@@std@@@std@@QAEXI@Z 0040db40 f i ReadFiles.obj
 0001:0000cc30       ?reserve@?$vector@UWNDW_LIST_INFO@@V?$allocator@UWNDW_LIST_INFO@@@std@@@std@@QAEXI@Z 0040dc30 f i ReadFiles.obj
 0001:0000cd20       ?allocate@?$allocator@UDUMP_LIST_INFO@@@std@@QAEPAUDUMP_LIST_INFO@@I@Z 0040dd20 f i ReadFiles.obj
 0001:0000cd80       ?allocate@?$allocator@UCSUM_LIST_INFO@@@std@@QAEPAUCSUM_LIST_INFO@@I@Z 0040dd80 f i ReadFiles.obj
 0001:0000cde0       ?allocate@?$allocator@UITRN_LIST_INFO@@@std@@QAEPAUITRN_LIST_INFO@@I@Z 0040dde0 f i ReadFiles.obj
 0001:0000ce40       ?allocate@?$allocator@UWNDW_LIST_INFO@@@std@@QAEPAUWNDW_LIST_INFO@@I@Z 0040de40 f i ReadFiles.obj
 0001:0000cea0       ??$_Uninit_move@PAUDUMP_LIST_INFO@@PAU1@V?$allocator@UDUMP_LIST_INFO@@@std@@U1@@std@@YAPAUDUMP_LIST_INFO@@PAU1@00AAV?$allocator@UDUMP_LIST_INFO@@@0@0U_Nonscalar_ptr_iterator_tag@0@@Z 0040dea0 f i ReadFiles.obj
 0001:0000ced0       ??$_Uninit_move@PAUCSUM_LIST_INFO@@PAU1@V?$allocator@UCSUM_LIST_INFO@@@std@@U1@@std@@YAPAUCSUM_LIST_INFO@@PAU1@00AAV?$allocator@UCSUM_LIST_INFO@@@0@0U_Nonscalar_ptr_iterator_tag@0@@Z 0040ded0 f i ReadFiles.obj
 0001:0000cf00       ??$_Uninit_move@PAUITRN_LIST_INFO@@PAU1@V?$allocator@UITRN_LIST_INFO@@@std@@U1@@std@@YAPAUITRN_LIST_INFO@@PAU1@00AAV?$allocator@UITRN_LIST_INFO@@@0@0U_Nonscalar_ptr_iterator_tag@0@@Z 0040df00 f i ReadFiles.obj
 0001:0000cf30       ??$_Uninit_move@PAUWNDW_LIST_INFO@@PAU1@V?$allocator@UWNDW_LIST_INFO@@@std@@U1@@std@@YAPAUWNDW_LIST_INFO@@PAU1@00AAV?$allocator@UWNDW_LIST_INFO@@@0@0U_Nonscalar_ptr_iterator_tag@0@@Z 0040df30 f i ReadFiles.obj
 0001:0000cf60       ?Init@CScreenShot@@QAEXXZ  0040df60 f   ScreenShot.obj
 0001:0000cfd0       ?RecvInfo@CScreenShot@@QAEXPAUPMSG_SCREEN_SHOT_SEND@@H@Z 0040dfd0 f   ScreenShot.obj
 0001:0000d180       ?SaveScreen@CScreenShot@@QAEXPAD0H@Z 0040e180 f   ScreenShot.obj
 0001:0000d560       ??4?$vector@EV?$allocator@E@std@@@std@@QAEAAV01@ABV01@@Z 0040e560 f i ScreenShot.obj
 0001:0000d660       ?_Buy@?$vector@EV?$allocator@E@std@@@std@@IAE_NI@Z 0040e660 f i ScreenShot.obj
 0001:0000d6a0       ?reserve@?$vector@EV?$allocator@E@std@@@std@@QAEXI@Z 0040e6a0 f i ScreenShot.obj
 0001:0000d710       ??$AtlConvAllocMemory@_W@ATL@@YAXPAPA_WHPA_WH@Z 0040e710 f i ScreenShot.obj
 0001:0000d7a0       ?AtlThrowLastWin32@ATL@@YGXXZ 0040e7a0 f i ScreenShot.obj
 0001:0000d7c0       ?Init@?$CA2WEX@$0IA@@ATL@@AAEXPBDI@Z 0040e7c0 f i ScreenShot.obj
 0001:0000d880       ??1?$CA2WEX@$0IA@@ATL@@QAE@XZ 0040e880 f i ScreenShot.obj
 0001:0000d8a0       ?AtlFindStringResourceInstance@ATL@@YAPAUHINSTANCE__@@IG@Z 0040e8a0 f i ScreenShot.obj
 0001:0000d920       ?_AtlGetStringResourceImage@ATL@@YAPBUATLSTRINGRESOURCEIMAGE@1@PAUHINSTANCE__@@PAUHRSRC__@@I@Z 0040e920 f i ScreenShot.obj
 0001:0000d980       ?ConvertToBaseType@?$ChTraitsCRT@_W@ATL@@SAXPA_WHPB_WH@Z 0040e980 f i ScreenShot.obj
 0001:0000da50       ?LoadStringA@?$CStringT@_WV?$StrTraitATL@_WV?$ChTraitsCRT@_W@ATL@@@ATL@@@ATL@@QAEHPAUHINSTANCE__@@I@Z 0040ea50 f i ScreenShot.obj
 0001:0000daf0       ?Empty@?$CSimpleStringT@_W$0A@@ATL@@QAEXXZ 0040eaf0 f i ScreenShot.obj
 0001:0000db50       ?Fork@?$CSimpleStringT@_W$0A@@ATL@@AAEXH@Z 0040eb50 f i ScreenShot.obj
 0001:0000dbe0       ?Reallocate@?$CSimpleStringT@_W$0A@@ATL@@AAEXH@Z 0040ebe0 f i ScreenShot.obj
 0001:0000dc10       ?PrepareWrite2@?$CSimpleStringT@_W$0A@@ATL@@AAEXH@Z 0040ec10 f i ScreenShot.obj
 0001:0000dc70       ?SetString@?$CSimpleStringT@_W$0A@@ATL@@QAEXPB_WH@Z 0040ec70 f i ScreenShot.obj
 0001:0000dd20       ?CloneData@?$CSimpleStringT@_W$0A@@ATL@@CAPAUCStringData@2@PAU32@@Z 0040ed20 f i ScreenShot.obj
 0001:0000dd90       ?ThrowMemoryException@?$CSimpleStringT@_W$0A@@ATL@@KAXXZ 0040ed90 f i ScreenShot.obj
 0001:0000dda0       ??0?$CSimpleStringT@_W$0A@@ATL@@QAE@PB_WHPAUIAtlStringMgr@1@@Z 0040eda0 f i ScreenShot.obj
 0001:0000de00       ?Mid@?$CStringT@_WV?$StrTraitATL@_WV?$ChTraitsCRT@_W@ATL@@@ATL@@@ATL@@QBE?AV12@HH@Z 0040ee00 f i ScreenShot.obj
 0001:0000deb0       ?Tokenize@?$CStringT@_WV?$StrTraitATL@_WV?$ChTraitsCRT@_W@ATL@@@ATL@@@ATL@@QBE?AV12@PB_WAAH@Z 0040eeb0 f i ScreenShot.obj
 0001:0000df80       ??1?$CStringT@_WV?$StrTraitATL@_WV?$ChTraitsCRT@_W@ATL@@@ATL@@@ATL@@QAE@XZ 0040ef80 f i ScreenShot.obj
 0001:0000df80       ??1?$CSimpleStringT@_W$0A@@ATL@@QAE@XZ 0040ef80 f i ScreenShot.obj
 0001:0000dfa0       ?FindCodecForExtension@CImage@ATL@@CA?AU_GUID@@PBDPBVImageCodecInfo@Gdiplus@@I@Z 0040efa0 f i ScreenShot.obj
 0001:0000e300       ?FindCodecForFileType@CImage@ATL@@CA?AU_GUID@@ABU3@PBVImageCodecInfo@Gdiplus@@I@Z 0040f300 f i ScreenShot.obj
 0001:0000e3e0       _IsEqualGUID               0040f3e0 f i ScreenShot.obj
 0001:0000e450       ?Save@CImage@ATL@@QBEJPBDABU_GUID@@@Z 0040f450 f i ScreenShot.obj
 0001:0000e6e0       ?DrawString@Graphics@Gdiplus@@QAE?AW4Status@2@PB_WHPBVFont@2@ABVPointF@2@PBVBrush@2@@Z 0040f6e0 f i ScreenShot.obj
 0001:0000e740       ??_ESolidBrush@Gdiplus@@UAEPAXI@Z 0040f740 f i  CIL library: CIL module
 0001:0000e740       ??_GBrush@Gdiplus@@UAEPAXI@Z 0040f740 f i ScreenShot.obj
 0001:0000e740       ??_GSolidBrush@Gdiplus@@UAEPAXI@Z 0040f740 f i ScreenShot.obj
 0001:0000e740       ??_EBrush@Gdiplus@@UAEPAXI@Z 0040f740 f i  CIL library: CIL module
 0001:0000e770       ?Clone@Brush@Gdiplus@@UBEPAV12@XZ 0040f770 f i ScreenShot.obj
 0001:0000e7d0       ??0SolidBrush@Gdiplus@@QAE@ABVColor@1@@Z 0040f7d0 f i ScreenShot.obj
 0001:0000e810       ??0Font@Gdiplus@@QAE@PBVFontFamily@1@MHW4Unit@1@@Z 0040f810 f i ScreenShot.obj
 0001:0000e850       ?swprintf@@YAHPA_WPB_WZZ   0040f850 f i ScreenShot.obj
 0001:0000e870       ?Init@CInitGDIPlus@CImage@ATL@@QAE_NXZ 0040f870 f i ScreenShot.obj
 0001:0000e8f0       ?UpdateBitmapInfo@CImage@ATL@@AAEXW4DIBOrientation@12@@Z 0040f8f0 f i ScreenShot.obj
 0001:0000e9d0       ?CreateEx@CImage@ATL@@QAEHHHHKPBKK@Z 0040f9d0 f i ScreenShot.obj
 0001:0000eaf0       ??1?$CAtlSafeAllocBufferManager@VCCRTAllocator@ATL@@@_ATL_SAFE_ALLOCA_IMPL@ATL@@QAE@XZ 0040faf0 f i ScreenShot.obj
 0001:0000eb20       ?_AtlVerifyStackAvailable@_ATL_SAFE_ALLOCA_IMPL@ATL@@YA_NK@Z 0040fb20 f i ScreenShot.obj
 0001:0000ebe0       ??$AtlAdd@K@ATL@@YAJPAKKK@Z 0040fbe0 f i ScreenShot.obj
 0001:0000ec10       ?Allocate@?$CAtlSafeAllocBufferManager@VCCRTAllocator@ATL@@@_ATL_SAFE_ALLOCA_IMPL@ATL@@QAEPAXK@Z 0040fc10 f i ScreenShot.obj
 0001:0000ec40       ?GetDC@CImage@ATL@@QBEPAUHDC__@@XZ 0040fc40 f i ScreenShot.obj
 0001:0000ec90       ?ReleaseDC@CImage@ATL@@QBEXXZ 0040fc90 f i ScreenShot.obj
 0001:0000ece0       ?AtlThrowImpl@ATL@@YGXJ@Z  0040fce0 f i ScreenShot.obj
 0001:0000ed00       ??_EImage@Gdiplus@@UAEPAXI@Z 0040fd00 f i  CIL library: CIL module
 0001:0000ed00       ??_EBitmap@Gdiplus@@UAEPAXI@Z 0040fd00 f i  CIL library: CIL module
 0001:0000ed00       ??_GImage@Gdiplus@@UAEPAXI@Z 0040fd00 f i ScreenShot.obj
 0001:0000ed00       ??_GBitmap@Gdiplus@@UAEPAXI@Z 0040fd00 f i ScreenShot.obj
 0001:0000ed30       ??0Bitmap@Gdiplus@@QAE@HHHHPAE@Z 0040fd30 f i ScreenShot.obj
 0001:0000ed70       ?Clone@Image@Gdiplus@@UAEPAV12@XZ 0040fd70 f i ScreenShot.obj
 0001:0000edc0       ?CreateFromGdiplusBitmap@CImage@ATL@@AAEJAAVBitmap@Gdiplus@@@Z 0040fdc0 f i ScreenShot.obj
 0001:0000f250       ?Load@CImage@ATL@@QAEJPAUIStream@@@Z 00410250 f i ScreenShot.obj
 0001:0000f2c0       ?Destroy@CImage@ATL@@QAEXXZ 004102c0 f i ScreenShot.obj
 0001:0000f300       ?ReleaseGDIPlus@CInitGDIPlus@CImage@ATL@@QAEXXZ 00410300 f i ScreenShot.obj
 0001:0000f330       ??1CImage@ATL@@UAE@XZ      00410330 f i ScreenShot.obj
 0001:0000f3c0       ??_GCImage@ATL@@UAEPAXI@Z  004103c0 f i ScreenShot.obj
 0001:0000f3c0       ??_ECImage@ATL@@UAEPAXI@Z  004103c0 f i  CIL library: CIL module
 0001:0000f3f0       ??0CImage@ATL@@QAE@XZ      004103f0 f i ScreenShot.obj
 0001:0000f440       ??0CScreenShow@@QAE@XZ     00410440 f   ScreenShow.obj
 0001:0000f550       ??_GCScreenShow@@UAEPAXI@Z 00410550 f i ScreenShow.obj
 0001:0000f550       ??_ECScreenShow@@UAEPAXI@Z 00410550 f i  CIL library: CIL module
 0001:0000f5b0       ?RecvInfo@CScreenShow@@QAEXPAUPMSG_SCREEN_RECV@@H@Z 004105b0 f   ScreenShow.obj
 0001:0000f7d0       ?DrawScreen@CScreenShow@@SAXPAUHWND__@@PAUHDC__@@@Z 004107d0 f   ScreenShow.obj
 0001:0000faa0       ?SendScreenState@CScreenShow@@QAEXHH@Z 00410aa0 f   ScreenShow.obj
 0001:0000fb40       ?RecvScreenData@CScreenShow@@QAEXPAUPMSG_SCREENDATA_RECV@@H@Z 00410b40 f   ScreenShow.obj
 0001:0000fc80       ?StretchBlt@CImage@ATL@@QBEHPAUHDC__@@HHHHK@Z 00410c80 f i ScreenShow.obj
 0001:0000fcf0       ?Draw@CImage@ATL@@QBEHPAUHDC__@@HHHHHHHH@Z 00410cf0 f i ScreenShow.obj
 0001:0000fdf0       ?Load@CImage@ATL@@QAEJPBD@Z 00410df0 f i ScreenShow.obj
 0001:0000fef0       ??0CServerDisplayer@@QAE@XZ 00410ef0 f   ServerDisplayer.obj
 0001:0000ffa0       ??_ECServerDisplayer@@UAEPAXI@Z 00410fa0 f i  CIL library: CIL module
 0001:0000ffa0       ??_GCServerDisplayer@@UAEPAXI@Z 00410fa0 f i ServerDisplayer.obj
 0001:0000fff0       ?Init@CServerDisplayer@@QAEXPAUHWND__@@@Z 00410ff0 f   ServerDisplayer.obj
 0001:00010080       ?Run@CServerDisplayer@@QAEXXZ 00411080 f   ServerDisplayer.obj
 0001:00010140       ?PaintAllInfo@CServerDisplayer@@QAEXXZ 00411140 f   ServerDisplayer.obj
 0001:000102a0       ?LogTextPaint@CServerDisplayer@@QAEXXZ 004112a0 f   ServerDisplayer.obj
 0001:000103f0       ?LogAddText@CServerDisplayer@@QAEXW4eLogColor@@PADH@Z 004113f0 f   ServerDisplayer.obj
 0001:00010480       ??_ECServerInfo@@UAEPAXI@Z 00411480 f i  CIL library: CIL module
 0001:00010480       ??_GCServerInfo@@UAEPAXI@Z 00411480 f i ServerInfo.obj
 0001:000104b0       ?ReadInit@CServerInfo@@QAEXXZ 004114b0 f   ServerInfo.obj
 0001:00010580       ?ReadDumpList@CServerInfo@@QAEXXZ 00411580 f   ServerInfo.obj
 0001:000105a0       ?ReadWindowList@CServerInfo@@QAEXXZ 004115a0 f   ServerInfo.obj
 0001:000105c0       ?ReadBlackList@CServerInfo@@QAEXXZ 004115c0 f   ServerInfo.obj
 0001:000105e0       ?ReadStartupInfo@CServerInfo@@QAEXPAD0@Z 004115e0 f   ServerInfo.obj
 0001:000106b0       ?ReadConfig@CServerInfo@@QAEXPAD0@Z 004116b0 f   ServerInfo.obj
 0001:00010a00       ??0CSocketManager@@QAE@XZ  00411a00 f   SocketManager.obj
 0001:00010b70       ??_GCSocketManager@@UAEPAXI@Z 00411b70 f i SocketManager.obj
 0001:00010b70       ??_ECSocketManager@@UAEPAXI@Z 00411b70 f i  CIL library: CIL module
 0001:00010ba0       ??1CSocketManager@@UAE@XZ  00411ba0 f   SocketManager.obj
 0001:00010c50       ?Start@CSocketManager@@QAE_NG@Z 00411c50 f   SocketManager.obj
 0001:00010cb0       ?Clean@CSocketManager@@QAEXXZ 00411cb0 f   SocketManager.obj
 0001:00010d70       ?CreateListenSocket@CSocketManager@@QAE_NXZ 00411d70 f   SocketManager.obj
 0001:00010e70       ?CreateCompletionPort@CSocketManager@@QAE_NXZ 00411e70 f   SocketManager.obj
 0001:00010ee0       ?CreateAcceptThread@CSocketManager@@QAE_NXZ 00411ee0 f   SocketManager.obj
 0001:00010f50       ?CreateWorkerThread@CSocketManager@@QAE_NXZ 00411f50 f   SocketManager.obj
 0001:00011000       ?CreateServerQueue@CSocketManager@@QAE_NXZ 00412000 f   SocketManager.obj
 0001:000110a0       ?DataRecv@CSocketManager@@QAE_NHPAUIO_MAIN_BUFFER@@@Z 004120a0 f   SocketManager.obj
 0001:00011390       ?DataSend@CSocketManager@@QAE_NHPAEH@Z 00412390 f   SocketManager.obj
 0001:00011610       ?Disconnect@CSocketManager@@QAEXH@Z 00412610 f   SocketManager.obj
 0001:000116c0       ?OnRecv@CSocketManager@@QAEXHKPAUIO_RECV_CONTEXT@@@Z 004126c0 f   SocketManager.obj
 0001:000117e0       ?OnSend@CSocketManager@@QAEXHKPAUIO_SEND_CONTEXT@@@Z 004127e0 f   SocketManager.obj
 0001:000119a0       ?ServerAcceptCondition@CSocketManager@@SGHPAU_WSABUF@@0PAU_QualityOfService@@100PAIPAV1@@Z 004129a0 f   SocketManager.obj
 0001:000119d0       ?ServerAcceptThread@CSocketManager@@SGKPAV1@@Z 004129d0 f   SocketManager.obj
 0001:00011b40       ?ServerWorkerThread@CSocketManager@@SGKPAV1@@Z 00412b40 f   SocketManager.obj
 0001:00011c30       ?ServerQueueThread@CSocketManager@@SGKPAV1@@Z 00412c30 f   SocketManager.obj
 0001:00011d60       ?copy_to_clipboard@@YAXV?$basic_string@DU?$char_traits@D@std@@V?$allocator@D@2@@std@@@Z 00412d60 f   Util.obj
 0001:00011dd0       ?CheckListBox@@YA_NPAUHWND__@@HPAD@Z 00412dd0 f   Util.obj
 0001:00011ec0       ?get_count_hwid_by_ip@@YAHPAD@Z 00412ec0 f   Util.obj
 0001:00011f30       ?split@@YA?AV?$vector@V?$basic_string@DU?$char_traits@D@std@@V?$allocator@D@2@@std@@V?$allocator@V?$basic_string@DU?$char_traits@D@std@@V?$allocator@D@2@@std@@@2@@std@@ABV?$basic_string@DU?$char_traits@D@std@@V?$allocator@D@2@@2@D@Z 00412f30 f   Util.obj
 0001:00012250       ?validateIP@@YA_NV?$basic_string@DU?$char_traits@D@std@@V?$allocator@D@2@@std@@@Z 00413250 f   Util.obj
 0001:000124d0       ?MsgBox@@YAXPADZZ          004134d0 f   Util.obj
 0001:00012540       ?ErrorMessageBox@@YAXPADZZ 00413540 f   Util.obj
 0001:000125c0       ?LogAdd@@YAXW4eLogColor@@PADZZ 004135c0 f   Util.obj
 0001:00012680       ?TimeoutProc@@YAXXZ        00413680 f   Util.obj
 0001:000126e0       ?GetUserCount@@YAHXZ       004136e0 f   Util.obj
 0001:000127e0       ?GetIpByIndex@@YAPADH@Z    004137e0 f   Util.obj
 0001:00012840       ?GetHwidByIndex@@YAPADH@Z  00413840 f   Util.obj
 0001:000128a0       ?GetFreeClientIndex@@YAHXZ 004138a0 f   Util.obj
 0001:00012930       ?SearchFreeClientIndex@@YAHPAHHHK@Z 00413930 f   Util.obj
 0001:000129b0       ?RemoveCharacter@@YAPADPADD@Z 004139b0 f   Util.obj
 0001:00012a10       ?push_back@?$vector@V?$basic_string@DU?$char_traits@D@std@@V?$allocator@D@2@@std@@V?$allocator@V?$basic_string@DU?$char_traits@D@std@@V?$allocator@D@2@@std@@@2@@std@@QAEX$$QAV?$basic_string@DU?$char_traits@D@std@@V?$allocator@D@2@@2@@Z 00413a10 f i Util.obj
 0001:00012ac0       ??1?$vector@V?$basic_string@DU?$char_traits@D@std@@V?$allocator@D@2@@std@@V?$allocator@V?$basic_string@DU?$char_traits@D@std@@V?$allocator@D@2@@std@@@2@@std@@QAE@XZ 00413ac0 f i Util.obj
 0001:00012b00       ?find@?$basic_string@DU?$char_traits@D@std@@V?$allocator@D@2@@std@@QBEIPBDII@Z 00413b00 f i Util.obj
 0001:00012ba0       ?find_first_not_of@?$basic_string@DU?$char_traits@D@std@@V?$allocator@D@2@@std@@QBEIPBDII@Z 00413ba0 f i Util.obj
 0001:00012c10       ?_Reserve@?$vector@V?$basic_string@DU?$char_traits@D@std@@V?$allocator@D@2@@std@@V?$allocator@V?$basic_string@DU?$char_traits@D@std@@V?$allocator@D@2@@std@@@2@@std@@IAEXI@Z 00413c10 f i Util.obj
 0001:00012c90       ?reserve@?$vector@V?$basic_string@DU?$char_traits@D@std@@V?$allocator@D@2@@std@@V?$allocator@V?$basic_string@DU?$char_traits@D@std@@V?$allocator@D@2@@std@@@2@@std@@QAEXI@Z 00413c90 f i Util.obj
 0001:00012da0       ?_Destroy@?$vector@V?$basic_string@DU?$char_traits@D@std@@V?$allocator@D@2@@std@@V?$allocator@V?$basic_string@DU?$char_traits@D@std@@V?$allocator@D@2@@std@@@2@@std@@IAEXPAV?$basic_string@DU?$char_traits@D@std@@V?$allocator@D@2@@2@0@Z 00413da0 f i Util.obj
 0001:00012de0       ?allocate@?$allocator@V?$basic_string@DU?$char_traits@D@std@@V?$allocator@D@2@@std@@@std@@QAEPAV?$basic_string@DU?$char_traits@D@std@@V?$allocator@D@2@@2@I@Z 00413de0 f i Util.obj
 0001:00012e40       ??$sprintf_s@$09@@YAHAAY09DPBDZZ 00413e40 f i Util.obj
 0001:00012e60       ??$_Uninit_move@PAV?$basic_string@DU?$char_traits@D@std@@V?$allocator@D@2@@std@@PAV12@V?$allocator@V?$basic_string@DU?$char_traits@D@std@@V?$allocator@D@2@@std@@@2@V12@@std@@YAPAV?$basic_string@DU?$char_traits@D@std@@V?$allocator@D@2@@0@PAV10@00AAV?$allocator@V?$basic_string@DU?$char_traits@D@std@@V?$allocator@D@2@@std@@@0@0U_Nonscalar_ptr_iterator_tag@0@@Z 00413e60 f i Util.obj
 0001:00012f20       ?stoi@std@@YAHABV?$basic_string@DU?$char_traits@D@std@@V?$allocator@D@2@@1@PAIH@Z 00413f20 f i Util.obj
 0001:00012f8a       ??1_Fac_node@std@@QAE@XZ   00413f8a f i msvcprt:locale0_implib.obj
 0001:00012fa0       ?_Facet_Register@facet@locale@std@@CAXPAV123@@Z 00413fa0 f   msvcprt:locale0_implib.obj
 0001:00012fcb       ??1_Fac_tidy_reg_t@std@@QAE@XZ 00413fcb f i msvcprt:locale0_implib.obj
 0001:0001301c       ?xsputn@?$basic_streambuf@DU?$char_traits@D@std@@@std@@MAE_JPBD_J@Z 0041401c f   msvcprt:MSVCP100.dll
 0001:00013022       ?showmanyc@?$basic_streambuf@DU?$char_traits@D@std@@@std@@MAE_JXZ 00414022 f   msvcprt:MSVCP100.dll
 0001:00013028       ?xsgetn@?$basic_streambuf@DU?$char_traits@D@std@@@std@@MAE_JPAD_J@Z 00414028 f   msvcprt:MSVCP100.dll
 0001:0001302e       ?sync@?$basic_streambuf@DU?$char_traits@D@std@@@std@@MAEHXZ 0041402e f   msvcprt:MSVCP100.dll
 0001:00013034       ?_Unlock@?$basic_streambuf@DU?$char_traits@D@std@@@std@@UAEXXZ 00414034 f   msvcprt:MSVCP100.dll
 0001:0001303a       ?_Lock@?$basic_streambuf@DU?$char_traits@D@std@@@std@@UAEXXZ 0041403a f   msvcprt:MSVCP100.dll
 0001:00013040       ?uflow@?$basic_streambuf@DU?$char_traits@D@std@@@std@@MAEHXZ 00414040 f   msvcprt:MSVCP100.dll
 0001:00013046       ?setbuf@?$basic_streambuf@DU?$char_traits@D@std@@@std@@MAEPAV12@PAD_J@Z 00414046 f   msvcprt:MSVCP100.dll
 0001:0001304c       ?imbue@?$basic_streambuf@DU?$char_traits@D@std@@@std@@MAEXABVlocale@2@@Z 0041404c f   msvcprt:MSVCP100.dll
 0001:00013052       ??_U@YAPAXI@Z              00414052 f   msvcprt:newaop_s.obj
 0001:0001305d       @__security_check_cookie@4 0041405d f   MSVCRT:secchk.obj
 0001:0001306c       ?what@exception@std@@UBEPBDXZ 0041406c f   MSVCRT:MSVCR100.dll
 0001:00013072       ??0exception@std@@QAE@ABV01@@Z 00414072 f   MSVCRT:MSVCR100.dll
 0001:00013078       _free                      00414078 f   MSVCRT:MSVCR100.dll
 0001:0001307e       ??3@YAXPAX@Z               0041407e f   MSVCRT:MSVCR100.dll
 0001:00013084       ??_Etype_info@@UAEPAXI@Z   00414084 f i MSVCRT:ti_inst.obj
 0001:000130d0       ??2@YAPAXI@Z               004140d0 f   MSVCRT:MSVCR100.dll
 0001:000130d6       __onexit                   004140d6 f   MSVCRT:atonexit.obj
 0001:00013177       _atexit                    00414177 f   MSVCRT:atonexit.obj
 0001:0001318e       ??0bad_cast@std@@QAE@ABV01@@Z 0041418e f   MSVCRT:MSVCR100.dll
 0001:00013194       ??1bad_cast@std@@UAE@XZ    00414194 f   MSVCRT:MSVCR100.dll
 0001:0001319a       ??_L@YGXPAXIHP6EX0@Z1@Z    0041419a f   MSVCRT:ehvecctr.obj
 0001:000131ff       ?__ArrayUnwind@@YGXPAXIHP6EX0@Z@Z 004141ff f   MSVCRT:ehvecdtr.obj
 0001:0001325d       ??_M@YGXPAXIHP6EX0@Z@Z     0041425d f   MSVCRT:ehvecdtr.obj
 0001:0001359e       _WinMainCRTStartup         0041459e f   MSVCRT:crtexew.obj
 0001:000135a8       ___CxxFrameHandler3        004145a8 f   MSVCRT:MSVCR100.dll
 0001:000135ae       __EH_prolog3               004145ae f   MSVCRT:ehprolg3.obj
 0001:000135e1       __EH_epilog3               004145e1 f   MSVCRT:ehprolg3.obj
 0001:000135f5       ___report_gsfailure        004145f5 f   MSVCRT:gs_report.obj
 0001:000136fc       __unlock                   004146fc f   MSVCRT:MSVCR100.dll
 0001:00013702       ___dllonexit               00414702 f   MSVCRT:MSVCR100.dll
 0001:00013708       __lock                     00414708 f   MSVCRT:MSVCR100.dll
 0001:00013710       __SEH_prolog4              00414710 f   MSVCRT:sehprolg4.obj
 0001:00013755       __SEH_epilog4              00414755 f   MSVCRT:sehprolg4.obj
 0001:00013769       __except_handler4          00414769 f   MSVCRT:chandler4gs.obj
 0001:0001378e       ?terminate@@YAXXZ          0041478e f   MSVCRT:MSVCR100.dll
 0001:00013794       ?__CxxUnhandledExceptionFilter@@YGJPAU_EXCEPTION_POINTERS@@@Z 00414794 f   MSVCRT:unhandld.obj
 0001:000137d6       ___CxxSetUnhandledExceptionFilter 004147d6 f   MSVCRT:unhandld.obj
 0001:000137e4       __amsg_exit                004147e4 f   MSVCRT:MSVCR100.dll
 0001:000137ea       __RTC_Initialize           004147ea f   MSVCRT:_initsect_.obj
 0001:00013810       __RTC_Terminate            00414810 f   MSVCRT:_initsect_.obj
 0001:00013836       __XcptFilter               00414836 f   MSVCRT:MSVCR100.dll
 0001:00013840       __ValidateImageBase        00414840 f   MSVCRT:pesect.obj
 0001:00013880       __FindPESection            00414880 f   MSVCRT:pesect.obj
 0001:000138d0       __IsNonwritableInCurrentImage 004148d0 f   MSVCRT:pesect.obj
 0001:0001398c       __initterm                 0041498c f   MSVCRT:MSVCR100.dll
 0001:00013992       __initterm_e               00414992 f   MSVCRT:MSVCR100.dll
 0001:00013998       __setdefaultprecision      00414998 f   MSVCRT:fp8.obj
 0001:000139c0       __matherr                  004149c0 f   MSVCRT:merr.obj
 0001:000139c0       __setargv                  004149c0 f   MSVCRT:dllargv.obj
 0001:000139c3       ___security_init_cookie    004149c3 f   MSVCRT:gs_support.obj
 0001:00013a5e       __crt_debugger_hook        00414a5e f   MSVCRT:MSVCR100.dll
 0001:00013a64       ??1type_info@@UAE@XZ       00414a64 f   MSVCRT:MSVCR100.dll
 0001:00013a64       ?_type_info_dtor_internal_method@type_info@@QAEXXZ 00414a64 f   MSVCRT:MSVCR100.dll
 0001:00013a6a       __except_handler4_common   00414a6a f   MSVCRT:MSVCR100.dll
 0001:00013a70       __invoke_watson            00414a70 f   MSVCRT:MSVCR100.dll
 0001:00013a76       __controlfp_s              00414a76 f   MSVCRT:MSVCR100.dll
 0001:00013a7c       ??0CInitGDIPlus@CImage@ATL@@QAE@XZ 00414a7c f i atls:atlimage2.obj
 0001:00013ab7       ??1CDCCache@CImage@ATL@@QAE@XZ 00414ab7 f i atls:atlimage.obj
 0001:00013ad6       ??1CWin32Heap@ATL@@UAE@XZ  00414ad6 f i atls:atlstr.obj
 0001:00013af1       ?Allocate@CWin32Heap@ATL@@UAEPAXI@Z 00414af1 f i atls:atlstr.obj
 0001:00013b08       ?Free@CWin32Heap@ATL@@UAEXPAX@Z 00414b08 f i atls:atlstr.obj
 0001:00013b25       ?Reallocate@CWin32Heap@ATL@@UAEPAXPAXI@Z 00414b25 f i atls:atlstr.obj
 0001:00013b5f       ?GetSize@CWin32Heap@ATL@@UAEIPAX@Z 00414b5f f i atls:atlstr.obj
 0001:00013b76       ??_GCWin32Heap@ATL@@UAEPAXI@Z 00414b76 f i atls:atlstr.obj
 0001:00013b76       ??_ECWin32Heap@ATL@@UAEPAXI@Z 00414b76 f i atls:atlstr.obj
 0001:00013b97       ??$AtlMultiply@I@ATL@@YAJPAIII@Z 00414b97 f i atls:atlstr.obj
 0001:00013b97       ??$AtlMultiply@K@ATL@@YAJPAKKK@Z 00414b97 f i atls:atlstr.obj
 0001:00013bbb       ?Free@CAtlStringMgr@ATL@@UAEXPAUCStringData@2@@Z 00414bbb f i atls:atlstr.obj
 0001:00013bc9       ?GetNilString@CAtlStringMgr@ATL@@UAEPAUCStringData@2@XZ 00414bc9 f i atls:atlstr.obj
 0001:00013bd7       ?Clone@CAtlStringMgr@ATL@@UAEPAUIAtlStringMgr@2@XZ 00414bd7 f i atls:atlstr.obj
 0001:00013bda       ??_ECAtlStringMgr@ATL@@UAEPAXI@Z 00414bda f i atls:atlstr.obj
 0001:00013bda       ??_GCAtlStringMgr@ATL@@UAEPAXI@Z 00414bda f i atls:atlstr.obj
 0001:00013bfc       ??$AtlAdd@I@ATL@@YAJPAIII@Z 00414bfc f i atls:atlstr.obj
 0001:00013c22       ?Allocate@CAtlStringMgr@ATL@@UAEPAUCStringData@2@HH@Z 00414c22 f i atls:atlstr.obj
 0001:00013c86       ?Reallocate@CAtlStringMgr@ATL@@UAEPAUCStringData@2@PAU32@HH@Z 00414c86 f i atls:atlstr.obj
 0001:00013ce1       ?RemoveAll@?$CSimpleArray@PAUHINSTANCE__@@V?$CSimpleArrayEqualHelper@PAUHINSTANCE__@@@ATL@@@ATL@@QAEXXZ 00414ce1 f i atls:atlbase.obj
 0001:00013d00       ?Init@CComCriticalSection@ATL@@QAEJXZ 00414d00 f i atls:atlbase.obj
 0001:00013d2b       ??0_ATL_BASE_MODULE70@ATL@@QAE@XZ 00414d2b f i atls:atlbase.obj
 0001:00013d50       ??1CAtlBaseModule@ATL@@QAE@XZ 00414d50 f   atls:atlbase.obj
 0001:00013d68       ?GetHInstanceAt@CAtlBaseModule@ATL@@QAEPAUHINSTANCE__@@H@Z 00414d68 f   atls:atlbase.obj
 0001:00013dc5       ??0CAtlBaseModule@ATL@@QAE@XZ 00414dc5 f   atls:atlbase.obj
 0001:00013e06       _memset                    00414e06 f   MSVCRT:MSVCR100.dll
 0001:00013e10       __alloca_probe             00414e10     MSVCRT:chkstk.obj
 0001:00013e10       __chkstk                   00414e10 f   MSVCRT:chkstk.obj
 0001:00013e40       __ftol2_sse                00414e40 f   MSVCRT:ftol2.obj
 0001:00013e49       __ftol2_pentium4           00414e49 f   MSVCRT:ftol2.obj
 0001:00013e5c       __ftol2_sse_excpt          00414e5c f   MSVCRT:ftol2.obj
 0001:00013e76       __ftol2                    00414e76 f   MSVCRT:ftol2.obj
 0001:00013eec       __CxxThrowException@8      00414eec f   MSVCRT:MSVCR100.dll
 0001:00013ef2       _memcpy                    00414ef2 f   MSVCRT:MSVCR100.dll
 0001:00013f00       __alloca_probe_16          00414f00 f   MSVCRT:alloca16.obj
 0001:00013f16       __alloca_probe_8           00414f16     MSVCRT:alloca16.obj
 0001:00013f2c       ___sse2_available_init     00414f2c f   MSVCRT:cpu_disp.obj
 0002:00000000       __imp__InitCommonControlsEx@4 00417000     comctl32:COMCTL32.dll
 0002:00000004       \177COMCTL32_NULL_THUNK_DATA 00417004     comctl32:COMCTL32.dll
 0002:00000008       __imp__SetDIBColorTable@16 00417008     gdi32:GDI32.dll
 0002:0000000c       __imp__CreateCompatibleDC@4 0041700c     gdi32:GDI32.dll
 0002:00000010       __imp__GetObjectA@12       00417010     gdi32:GDI32.dll
 0002:00000014       __imp__CreateDIBSection@24 00417014     gdi32:GDI32.dll
 0002:00000018       __imp__GetDeviceCaps@8     00417018     gdi32:GDI32.dll
 0002:0000001c       __imp__StretchBlt@44       0041701c     gdi32:GDI32.dll
 0002:00000020       __imp__SelectObject@8      00417020     gdi32:GDI32.dll
 0002:00000024       __imp__CreateFontA@56      00417024     gdi32:GDI32.dll
 0002:00000028       __imp__CreateSolidBrush@4  00417028     gdi32:GDI32.dll
 0002:0000002c       __imp__SetBkMode@8         0041702c     gdi32:GDI32.dll
 0002:00000030       __imp__SetTextColor@8      00417030     gdi32:GDI32.dll
 0002:00000034       __imp__TextOutA@20         00417034     gdi32:GDI32.dll
 0002:00000038       __imp__SetBkColor@8        00417038     gdi32:GDI32.dll
 0002:0000003c       __imp__GetDIBColorTable@16 0041703c     gdi32:GDI32.dll
 0002:00000040       __imp__DeleteObject@4      00417040     gdi32:GDI32.dll
 0002:00000044       __imp__DeleteDC@4          00417044     gdi32:GDI32.dll
 0002:00000048       \177GDI32_NULL_THUNK_DATA  00417048     gdi32:GDI32.dll
 0002:0000004c       __imp__GetCurrentProcess@0 0041704c     kernel32:KERNEL32.dll
 0002:00000050       __imp__SetErrorMode@4      00417050     kernel32:KERNEL32.dll
 0002:00000054       __imp__SetUnhandledExceptionFilter@4 00417054     kernel32:KERNEL32.dll
 0002:00000058       __imp__DeleteFileA@4       00417058     kernel32:KERNEL32.dll
 0002:0000005c       __imp__GetFullPathNameA@16 0041705c     kernel32:KERNEL32.dll
 0002:00000060       __imp__OpenProcess@12      00417060     kernel32:KERNEL32.dll
 0002:00000064       __imp__VirtualAllocEx@20   00417064     kernel32:KERNEL32.dll
 0002:00000068       __imp__WriteProcessMemory@20 00417068     kernel32:KERNEL32.dll
 0002:0000006c       __imp__VirtualFreeEx@16    0041706c     kernel32:KERNEL32.dll
 0002:00000070       __imp__GetProcAddress@8    00417070     kernel32:KERNEL32.dll
 0002:00000074       __imp__GetProcessId@4      00417074     kernel32:KERNEL32.dll
 0002:00000078       __imp__CreateMutexA@12     00417078     kernel32:KERNEL32.dll
 0002:0000007c       __imp__CreateRemoteThread@28 0041707c     kernel32:KERNEL32.dll
 0002:00000080       __imp__WaitForSingleObject@8 00417080     kernel32:KERNEL32.dll
 0002:00000084       __imp__GlobalAlloc@8       00417084     kernel32:KERNEL32.dll
 0002:00000088       __imp__GlobalLock@4        00417088     kernel32:KERNEL32.dll
 0002:0000008c       __imp__InterlockedExchange@8 0041708c     kernel32:KERNEL32.dll
 0002:00000090       __imp__GlobalUnlock@4      00417090     kernel32:KERNEL32.dll
 0002:00000094       __imp__GlobalFree@4        00417094     kernel32:KERNEL32.dll
 0002:00000098       __imp__MultiByteToWideChar@24 00417098     kernel32:KERNEL32.dll
 0002:0000009c       __imp__lstrlenA@4          0041709c     kernel32:KERNEL32.dll
 0002:000000a0       __imp__SizeofResource@8    004170a0     kernel32:KERNEL32.dll
 0002:000000a4       __imp__LockResource@4      004170a4     kernel32:KERNEL32.dll
 0002:000000a8       __imp__LoadResource@8      004170a8     kernel32:KERNEL32.dll
 0002:000000ac       __imp__FindResourceW@12    004170ac     kernel32:KERNEL32.dll
 0002:000000b0       __imp__FindResourceExW@16  004170b0     kernel32:KERNEL32.dll
 0002:000000b4       __imp__GetLastError@0      004170b4     kernel32:KERNEL32.dll
 0002:000000b8       __imp__GetCurrentProcessId@0 004170b8     kernel32:KERNEL32.dll
 0002:000000bc       __imp__ReadFile@20         004170bc     kernel32:KERNEL32.dll
 0002:000000c0       __imp__GetPrivateProfileStringA@24 004170c0     kernel32:KERNEL32.dll
 0002:000000c4       __imp__GetPrivateProfileIntA@16 004170c4     kernel32:KERNEL32.dll
 0002:000000c8       __imp__TerminateThread@8   004170c8     kernel32:KERNEL32.dll
 0002:000000cc       __imp__CreateIoCompletionPort@16 004170cc     kernel32:KERNEL32.dll
 0002:000000d0       __imp__GetSystemInfo@4     004170d0     kernel32:KERNEL32.dll
 0002:000000d4       __imp__CreateSemaphoreA@16 004170d4     kernel32:KERNEL32.dll
 0002:000000d8       __imp__ReleaseSemaphore@12 004170d8     kernel32:KERNEL32.dll
 0002:000000dc       __imp__GetQueuedCompletionStatus@20 004170dc     kernel32:KERNEL32.dll
 0002:000000e0       __imp__TerminateProcess@8  004170e0     kernel32:KERNEL32.dll
 0002:000000e4       __imp__RaiseException@16   004170e4     kernel32:KERNEL32.dll
 0002:000000e8       __imp__GetProcessHeap@0    004170e8     kernel32:KERNEL32.dll
 0002:000000ec       __imp__HeapSize@12         004170ec     kernel32:KERNEL32.dll
 0002:000000f0       __imp__HeapReAlloc@16      004170f0     kernel32:KERNEL32.dll
 0002:000000f4       __imp__HeapFree@12         004170f4     kernel32:KERNEL32.dll
 0002:000000f8       __imp__HeapAlloc@12        004170f8     kernel32:KERNEL32.dll
 0002:000000fc       __imp__HeapDestroy@4       004170fc     kernel32:KERNEL32.dll
 0002:00000100       __imp__InitializeCriticalSectionAndSpinCount@8 00417100     kernel32:KERNEL32.dll
 0002:00000104       __imp__GetSystemTimeAsFileTime@4 00417104     kernel32:KERNEL32.dll
 0002:00000108       __imp__QueryPerformanceCounter@4 00417108     kernel32:KERNEL32.dll
 0002:0000010c       __imp__IsDebuggerPresent@0 0041710c     kernel32:KERNEL32.dll
 0002:00000110       __imp__UnhandledExceptionFilter@4 00417110     kernel32:KERNEL32.dll
 0002:00000114       __imp__GetStartupInfoW@4   00417114     kernel32:KERNEL32.dll
 0002:00000118       __imp__HeapSetInformation@16 00417118     kernel32:KERNEL32.dll
 0002:0000011c       __imp__InterlockedCompareExchange@12 0041711c     kernel32:KERNEL32.dll
 0002:00000120       __imp__DecodePointer@4     00417120     kernel32:KERNEL32.dll
 0002:00000124       __imp__EncodePointer@4     00417124     kernel32:KERNEL32.dll
 0002:00000128       __imp__SetThreadPriority@8 00417128     kernel32:KERNEL32.dll
 0002:0000012c       __imp__GetCurrentThreadId@0 0041712c     kernel32:KERNEL32.dll
 0002:00000130       __imp__GetFileSize@8       00417130     kernel32:KERNEL32.dll
 0002:00000134       __imp__WriteFile@20        00417134     kernel32:KERNEL32.dll
 0002:00000138       __imp__IsProcessorFeaturePresent@4 00417138     kernel32:KERNEL32.dll
 0002:0000013c       __imp__SetFilePointer@16   0041713c     kernel32:KERNEL32.dll
 0002:00000140       __imp__CreateFileA@28      00417140     kernel32:KERNEL32.dll
 0002:00000144       __imp__GetLocalTime@4      00417144     kernel32:KERNEL32.dll
 0002:00000148       __imp__CreateDirectoryA@8  00417148     kernel32:KERNEL32.dll
 0002:0000014c       __imp__CloseHandle@4       0041714c     kernel32:KERNEL32.dll
 0002:00000150       __imp__GetModuleHandleA@4  00417150     kernel32:KERNEL32.dll
 0002:00000154       __imp__LeaveCriticalSection@4 00417154     kernel32:KERNEL32.dll
 0002:00000158       __imp__EnterCriticalSection@4 00417158     kernel32:KERNEL32.dll
 0002:0000015c       __imp__DeleteCriticalSection@4 0041715c     kernel32:KERNEL32.dll
 0002:00000160       __imp__InitializeCriticalSection@4 00417160     kernel32:KERNEL32.dll
 0002:00000164       __imp__GetTickCount@0      00417164     kernel32:KERNEL32.dll
 0002:00000168       __imp__MoveFileA@8         00417168     kernel32:KERNEL32.dll
 0002:0000016c       __imp__Sleep@4             0041716c     kernel32:KERNEL32.dll
 0002:00000170       __imp__CreateThread@24     00417170     kernel32:KERNEL32.dll
 0002:00000174       \177KERNEL32_NULL_THUNK_DATA 00417174     kernel32:KERNEL32.dll
 0002:00000178       __imp__TransparentBlt@44   00417178     msimg32:MSIMG32.dll
 0002:0000017c       __imp__AlphaBlend@44       0041717c     msimg32:MSIMG32.dll
 0002:00000180       \177MSIMG32_NULL_THUNK_DATA 00417180     msimg32:MSIMG32.dll
 0002:00000184       __imp_?_Xinvalid_argument@std@@YAXPBD@Z 00417184     msvcprt:MSVCP100.dll
 0002:00000188       __imp___Stolx              00417188     msvcprt:MSVCP100.dll
 0002:0000018c       __imp_?_Swap_all@_Container_base12@std@@QAEXAAU12@@Z 0041718c     msvcprt:MSVCP100.dll
 0002:00000190       __imp_??1_Container_base12@std@@QAE@XZ 00417190     msvcprt:MSVCP100.dll
 0002:00000194       __imp_??6?$basic_ostream@DU?$char_traits@D@std@@@std@@QAEAAV01@H@Z 00417194     msvcprt:MSVCP100.dll
 0002:00000198       __imp_??0?$basic_iostream@DU?$char_traits@D@std@@@std@@QAE@PAV?$basic_streambuf@DU?$char_traits@D@std@@@1@@Z 00417198     msvcprt:MSVCP100.dll
 0002:0000019c       __imp_?imbue@?$basic_streambuf@DU?$char_traits@D@std@@@std@@MAEXABVlocale@2@@Z 0041719c     msvcprt:MSVCP100.dll
 0002:000001a0       __imp_?setbuf@?$basic_streambuf@DU?$char_traits@D@std@@@std@@MAEPAV12@PAD_J@Z 004171a0     msvcprt:MSVCP100.dll
 0002:000001a4       __imp_?uflow@?$basic_streambuf@DU?$char_traits@D@std@@@std@@MAEHXZ 004171a4     msvcprt:MSVCP100.dll
 0002:000001a8       __imp_?_Xout_of_range@std@@YAXPBD@Z 004171a8     msvcprt:MSVCP100.dll
 0002:000001ac       __imp_?_Xlength_error@std@@YAXPBD@Z 004171ac     msvcprt:MSVCP100.dll
 0002:000001b0       __imp_?write@?$basic_ostream@DU?$char_traits@D@std@@@std@@QAEAAV12@PBD_J@Z 004171b0     msvcprt:MSVCP100.dll
 0002:000001b4       __imp_?endl@std@@YAAAV?$basic_ostream@DU?$char_traits@D@std@@@1@AAV21@@Z 004171b4     msvcprt:MSVCP100.dll
 0002:000001b8       __imp_?flush@?$basic_ostream@DU?$char_traits@D@std@@@std@@QAEAAV12@XZ 004171b8     msvcprt:MSVCP100.dll
 0002:000001bc       __imp_?setstate@?$basic_ios@DU?$char_traits@D@std@@@std@@QAEXH_N@Z 004171bc     msvcprt:MSVCP100.dll
 0002:000001c0       __imp_?clear@?$basic_ios@DU?$char_traits@D@std@@@std@@QAEXH_N@Z 004171c0     msvcprt:MSVCP100.dll
 0002:000001c4       __imp_?sputc@?$basic_streambuf@DU?$char_traits@D@std@@@std@@QAEHD@Z 004171c4     msvcprt:MSVCP100.dll
 0002:000001c8       __imp_?_Pninc@?$basic_streambuf@DU?$char_traits@D@std@@@std@@IAEPADXZ 004171c8     msvcprt:MSVCP100.dll
 0002:000001cc       __imp_?_Osfx@?$basic_ostream@DU?$char_traits@D@std@@@std@@QAEXXZ 004171cc     msvcprt:MSVCP100.dll
 0002:000001d0       __imp_?uncaught_exception@std@@YA_NXZ 004171d0     msvcprt:MSVCP100.dll
 0002:000001d4       __imp_??1?$basic_ios@DU?$char_traits@D@std@@@std@@UAE@XZ 004171d4     msvcprt:MSVCP100.dll
 0002:000001d8       __imp_??1?$basic_ostream@DU?$char_traits@D@std@@@std@@UAE@XZ 004171d8     msvcprt:MSVCP100.dll
 0002:000001dc       __imp_??_7?$basic_ostream@DU?$char_traits@D@std@@@std@@6B@ 004171dc     msvcprt:MSVCP100.dll
 0002:000001e0       __imp_??1?$basic_streambuf@DU?$char_traits@D@std@@@std@@UAE@XZ 004171e0     msvcprt:MSVCP100.dll
 0002:000001e4       __imp_?_Decref@facet@locale@std@@QAEPAV123@XZ 004171e4     msvcprt:MSVCP100.dll
 0002:000001e8       __imp_??1_Lockit@std@@QAE@XZ 004171e8     msvcprt:MSVCP100.dll
 0002:000001ec       __imp_??0_Lockit@std@@QAE@H@Z 004171ec     msvcprt:MSVCP100.dll
 0002:000001f0       __imp_?_BADOFF@std@@3_JB   004171f0     msvcprt:MSVCP100.dll
 0002:000001f4       __imp_?_Fiopen@std@@YAPAU_iobuf@@PBDHH@Z 004171f4     msvcprt:MSVCP100.dll
 0002:000001f8       __imp_?always_noconv@codecvt_base@std@@QBE_NXZ 004171f8     msvcprt:MSVCP100.dll
 0002:000001fc       __imp_?_Getgloballocale@locale@std@@CAPAV_Locimp@12@XZ 004171fc     msvcprt:MSVCP100.dll
 0002:00000200       __imp_?_Incref@facet@locale@std@@QAEXXZ 00417200     msvcprt:MSVCP100.dll
 0002:00000204       __imp_??Bid@locale@std@@QAEIXZ 00417204     msvcprt:MSVCP100.dll
 0002:00000208       __imp_?id@?$codecvt@DDH@std@@2V0locale@2@A 00417208     msvcprt:MSVCP100.dll
 0002:0000020c       __imp_?xsputn@?$basic_streambuf@DU?$char_traits@D@std@@@std@@MAE_JPBD_J@Z 0041720c     msvcprt:MSVCP100.dll
 0002:00000210       __imp_?showmanyc@?$basic_streambuf@DU?$char_traits@D@std@@@std@@MAE_JXZ 00417210     msvcprt:MSVCP100.dll
 0002:00000214       __imp_?xsgetn@?$basic_streambuf@DU?$char_traits@D@std@@@std@@MAE_JPAD_J@Z 00417214     msvcprt:MSVCP100.dll
 0002:00000218       __imp_?sputn@?$basic_streambuf@DU?$char_traits@D@std@@@std@@QAE_JPBD_J@Z 00417218     msvcprt:MSVCP100.dll
 0002:0000021c       __imp_?_Getcat@?$codecvt@DDH@std@@SAIPAPBVfacet@locale@2@PBV42@@Z 0041721c     msvcprt:MSVCP100.dll
 0002:00000220       __imp_?_Init@?$basic_streambuf@DU?$char_traits@D@std@@@std@@IAEXXZ 00417220     msvcprt:MSVCP100.dll
 0002:00000224       __imp_?setg@?$basic_streambuf@DU?$char_traits@D@std@@@std@@IAEXPAD00@Z 00417224     msvcprt:MSVCP100.dll
 0002:00000228       __imp_?getloc@?$basic_streambuf@DU?$char_traits@D@std@@@std@@QBE?AVlocale@2@XZ 00417228     msvcprt:MSVCP100.dll
 0002:0000022c       __imp_??0?$basic_streambuf@DU?$char_traits@D@std@@@std@@IAE@XZ 0041722c     msvcprt:MSVCP100.dll
 0002:00000230       __imp_?unshift@?$codecvt@DDH@std@@QBEHAAHPAD1AAPAD@Z 00417230     msvcprt:MSVCP100.dll
 0002:00000234       __imp_??0?$basic_ostream@DU?$char_traits@D@std@@@std@@QAE@PAV?$basic_streambuf@DU?$char_traits@D@std@@@1@_N@Z 00417234     msvcprt:MSVCP100.dll
 0002:00000238       __imp_??0?$basic_ios@DU?$char_traits@D@std@@@std@@IAE@XZ 00417238     msvcprt:MSVCP100.dll
 0002:0000023c       __imp_?out@?$codecvt@DDH@std@@QBEHAAHPBD1AAPBDPAD3AAPAD@Z 0041723c     msvcprt:MSVCP100.dll
 0002:00000240       __imp_?in@?$codecvt@DDH@std@@QBEHAAHPBD1AAPBDPAD3AAPAD@Z 00417240     msvcprt:MSVCP100.dll
 0002:00000244       __imp_??6?$basic_ostream@DU?$char_traits@D@std@@@std@@QAEAAV01@P6AAAV01@AAV01@@Z@Z 00417244     msvcprt:MSVCP100.dll
 0002:00000248       __imp_?sync@?$basic_streambuf@DU?$char_traits@D@std@@@std@@MAEHXZ 00417248     msvcprt:MSVCP100.dll
 0002:0000024c       __imp_?_Unlock@?$basic_streambuf@DU?$char_traits@D@std@@@std@@UAEXXZ 0041724c     msvcprt:MSVCP100.dll
 0002:00000250       __imp_?_Lock@?$basic_streambuf@DU?$char_traits@D@std@@@std@@UAEXXZ 00417250     msvcprt:MSVCP100.dll
 0002:00000254       __imp_??1?$basic_iostream@DU?$char_traits@D@std@@@std@@UAE@XZ 00417254     msvcprt:MSVCP100.dll
 0002:00000258       \177MSVCP100_NULL_THUNK_DATA 00417258     msvcprt:MSVCP100.dll
 0002:0000025c       __imp___initterm           0041725c     MSVCRT:MSVCR100.dll
 0002:00000260       __imp___initterm_e         00417260     MSVCRT:MSVCR100.dll
 0002:00000264       __imp___configthreadlocale 00417264     MSVCRT:MSVCR100.dll
 0002:00000268       __imp____setusermatherr    00417268     MSVCRT:MSVCR100.dll
 0002:0000026c       __imp___commode            0041726c     MSVCRT:MSVCR100.dll
 0002:00000270       __imp___fmode              00417270     MSVCRT:MSVCR100.dll
 0002:00000274       __imp____set_app_type      00417274     MSVCRT:MSVCR100.dll
 0002:00000278       __imp__exit                00417278     MSVCRT:MSVCR100.dll
 0002:0000027c       __imp___crt_debugger_hook  0041727c     MSVCRT:MSVCR100.dll
 0002:00000280       __imp_?_type_info_dtor_internal_method@type_info@@QAEXXZ 00417280     MSVCRT:MSVCR100.dll
 0002:00000284       __imp___except_handler4_common 00417284     MSVCRT:MSVCR100.dll
 0002:00000288       __imp___invoke_watson      00417288     MSVCRT:MSVCR100.dll
 0002:0000028c       __imp___controlfp_s        0041728c     MSVCRT:MSVCR100.dll
 0002:00000290       __imp__memset              00417290     MSVCRT:MSVCR100.dll
 0002:00000294       __imp___CxxThrowException@8 00417294     MSVCRT:MSVCR100.dll
 0002:00000298       __imp__memcpy              00417298     MSVCRT:MSVCR100.dll
 0002:0000029c       __imp___acmdln             0041729c     MSVCRT:MSVCR100.dll
 0002:000002a0       __imp__sprintf             004172a0     MSVCRT:MSVCR100.dll
 0002:000002a4       __imp_?what@exception@std@@UBEPBDXZ 004172a4     MSVCRT:MSVCR100.dll
 0002:000002a8       __imp_??1exception@std@@UAE@XZ 004172a8     MSVCRT:MSVCR100.dll
 0002:000002ac       __imp_??0exception@std@@QAE@ABQBD@Z 004172ac     MSVCRT:MSVCR100.dll
 0002:000002b0       __imp_??0exception@std@@QAE@ABV01@@Z 004172b0     MSVCRT:MSVCR100.dll
 0002:000002b4       __imp__memmove             004172b4     MSVCRT:MSVCR100.dll
 0002:000002b8       __imp__free                004172b8     MSVCRT:MSVCR100.dll
 0002:000002bc       __imp__malloc              004172bc     MSVCRT:MSVCR100.dll
 0002:000002c0       __imp___fseeki64           004172c0     MSVCRT:MSVCR100.dll
 0002:000002c4       __imp__fread               004172c4     MSVCRT:MSVCR100.dll
 0002:000002c8       __imp_??3@YAXPAX@Z         004172c8     MSVCRT:MSVCR100.dll
 0002:000002cc       __imp__fwrite              004172cc     MSVCRT:MSVCR100.dll
 0002:000002d0       __imp__strtoul             004172d0     MSVCRT:MSVCR100.dll
 0002:000002d4       __imp__fclose              004172d4     MSVCRT:MSVCR100.dll
 0002:000002d8       __imp_??2@YAPAXI@Z         004172d8     MSVCRT:MSVCR100.dll
 0002:000002dc       __imp__rand                004172dc     MSVCRT:MSVCR100.dll
 0002:000002e0       __imp__strcpy_s            004172e0     MSVCRT:MSVCR100.dll
 0002:000002e4       __imp___lock_file          004172e4     MSVCRT:MSVCR100.dll
 0002:000002e8       __imp___unlock_file        004172e8     MSVCRT:MSVCR100.dll
 0002:000002ec       __imp__fputc               004172ec     MSVCRT:MSVCR100.dll
 0002:000002f0       __imp__ungetc              004172f0     MSVCRT:MSVCR100.dll
 0002:000002f4       __imp__fgetc               004172f4     MSVCRT:MSVCR100.dll
 0002:000002f8       __imp__memcpy_s            004172f8     MSVCRT:MSVCR100.dll
 0002:000002fc       __imp__fgetpos             004172fc     MSVCRT:MSVCR100.dll
 0002:00000300       __imp__fsetpos             00417300     MSVCRT:MSVCR100.dll
 0002:00000304       __imp__setvbuf             00417304     MSVCRT:MSVCR100.dll
 0002:00000308       __imp__fflush              00417308     MSVCRT:MSVCR100.dll
 0002:0000030c       __imp_??0bad_cast@std@@QAE@ABV01@@Z 0041730c     MSVCRT:MSVCR100.dll
 0002:00000310       __imp_??1bad_cast@std@@UAE@XZ 00417310     MSVCRT:MSVCR100.dll
 0002:00000314       __imp_??0bad_cast@std@@QAE@PBD@Z 00417314     MSVCRT:MSVCR100.dll
 0002:00000318       __imp__fopen_s             00417318     MSVCRT:MSVCR100.dll
 0002:0000031c       __imp__strtok_s            0041731c     MSVCRT:MSVCR100.dll
 0002:00000320       __imp__atoi                00417320     MSVCRT:MSVCR100.dll
 0002:00000324       __imp__vsprintf_s          00417324     MSVCRT:MSVCR100.dll
 0002:00000328       __imp__strstr              00417328     MSVCRT:MSVCR100.dll
 0002:0000032c       __imp__strncpy_s           0041732c     MSVCRT:MSVCR100.dll
 0002:00000330       __imp__strchr              00417330     MSVCRT:MSVCR100.dll
 0002:00000334       __imp_??_V@YAXPAX@Z        00417334     MSVCRT:MSVCR100.dll
 0002:00000338       __imp__isspace             00417338     MSVCRT:MSVCR100.dll
 0002:0000033c       __imp__isdigit             0041733c     MSVCRT:MSVCR100.dll
 0002:00000340       __imp__atof                00417340     MSVCRT:MSVCR100.dll
 0002:00000344       __imp__isalpha             00417344     MSVCRT:MSVCR100.dll
 0002:00000348       __imp__isalnum             00417348     MSVCRT:MSVCR100.dll
 0002:0000034c       __imp__sscanf_s            0041734c     MSVCRT:MSVCR100.dll
 0002:00000350       __imp__srand               00417350     MSVCRT:MSVCR100.dll
 0002:00000354       __imp___time64             00417354     MSVCRT:MSVCR100.dll
 0002:00000358       __imp__rename              00417358     MSVCRT:MSVCR100.dll
 0002:0000035c       __imp___resetstkoflw       0041735c     MSVCRT:MSVCR100.dll
 0002:00000360       __imp___vswprintf          00417360     MSVCRT:MSVCR100.dll
 0002:00000364       __imp___wcsicmp            00417364     MSVCRT:MSVCR100.dll
 0002:00000368       __imp__wcscspn             00417368     MSVCRT:MSVCR100.dll
 0002:0000036c       __imp__wcsspn              0041736c     MSVCRT:MSVCR100.dll
 0002:00000370       __imp__memmove_s           00417370     MSVCRT:MSVCR100.dll
 0002:00000374       __imp__wmemcpy_s           00417374     MSVCRT:MSVCR100.dll
 0002:00000378       __imp__calloc              00417378     MSVCRT:MSVCR100.dll
 0002:0000037c       __imp___recalloc           0041737c     MSVCRT:MSVCR100.dll
 0002:00000380       __imp__strtok              00417380     MSVCRT:MSVCR100.dll
 0002:00000384       __imp___localtime64_s      00417384     MSVCRT:MSVCR100.dll
 0002:00000388       __imp__asctime_s           00417388     MSVCRT:MSVCR100.dll
 0002:0000038c       __imp__memchr              0041738c     MSVCRT:MSVCR100.dll
 0002:00000390       __imp____CxxFrameHandler3  00417390     MSVCRT:MSVCR100.dll
 0002:00000394       __imp___unlock             00417394     MSVCRT:MSVCR100.dll
 0002:00000398       __imp____dllonexit         00417398     MSVCRT:MSVCR100.dll
 0002:0000039c       __imp___lock               0041739c     MSVCRT:MSVCR100.dll
 0002:000003a0       __imp___onexit             004173a0     MSVCRT:MSVCR100.dll
 0002:000003a4       __imp_?terminate@@YAXXZ    004173a4     MSVCRT:MSVCR100.dll
 0002:000003a8       __imp___amsg_exit          004173a8     MSVCRT:MSVCR100.dll
 0002:000003ac       __imp____getmainargs       004173ac     MSVCRT:MSVCR100.dll
 0002:000003b0       __imp___cexit              004173b0     MSVCRT:MSVCR100.dll
 0002:000003b4       __imp___exit               004173b4     MSVCRT:MSVCR100.dll
 0002:000003b8       __imp___XcptFilter         004173b8     MSVCRT:MSVCR100.dll
 0002:000003bc       __imp___ismbblead          004173bc     MSVCRT:MSVCR100.dll
 0002:000003c0       \177MSVCR100_NULL_THUNK_DATA 004173c0     MSVCRT:MSVCR100.dll
 0002:000003c4       __imp__EnumProcesses@12    004173c4     Psapi:PSAPI.DLL
 0002:000003c8       __imp__EnumProcessModules@16 004173c8     Psapi:PSAPI.DLL
 0002:000003cc       __imp__GetModuleFileNameExA@16 004173cc     Psapi:PSAPI.DLL
 0002:000003d0       __imp__GetModuleBaseNameA@16 004173d0     Psapi:PSAPI.DLL
 0002:000003d4       \177PSAPI_NULL_THUNK_DATA  004173d4     Psapi:PSAPI.DLL
 0002:000003d8       __imp__PathFindExtensionA@4 004173d8     shlwapi:SHLWAPI.dll
 0002:000003dc       __imp__PathFindExtensionW@4 004173dc     shlwapi:SHLWAPI.dll
 0002:000003e0       \177SHLWAPI_NULL_THUNK_DATA 004173e0     shlwapi:SHLWAPI.dll
 0002:000003e4       __imp__GetSystemMetrics@4  004173e4     user32:USER32.dll
 0002:000003e8       __imp__ReleaseDC@8         004173e8     user32:USER32.dll
 0002:000003ec       __imp__SetDlgItemTextA@12  004173ec     user32:USER32.dll
 0002:000003f0       __imp__OpenClipboard@4     004173f0     user32:USER32.dll
 0002:000003f4       __imp__GetClientRect@8     004173f4     user32:USER32.dll
 0002:000003f8       __imp__GetWindowTextA@12   004173f8     user32:USER32.dll
 0002:000003fc       __imp__LoadImageA@24       004173fc     user32:USER32.dll
 0002:00000400       __imp__GetDC@4             00417400     user32:USER32.dll
 0002:00000404       __imp__SetClipboardData@8  00417404     user32:USER32.dll
 0002:00000408       __imp__LoadStringA@16      00417408     user32:USER32.dll
 0002:0000040c       __imp__wsprintfA           0041740c     user32:USER32.dll
 0002:00000410       __imp__SetWindowTextA@8    00417410     user32:USER32.dll
 0002:00000414       __imp__EndPaint@8          00417414     user32:USER32.dll
 0002:00000418       __imp__LoadAcceleratorsA@8 00417418     user32:USER32.dll
 0002:0000041c       __imp__GetMessageA@16      0041741c     user32:USER32.dll
 0002:00000420       __imp__TranslateAcceleratorA@12 00417420     user32:USER32.dll
 0002:00000424       __imp__TranslateMessage@4  00417424     user32:USER32.dll
 0002:00000428       __imp__DispatchMessageA@4  00417428     user32:USER32.dll
 0002:0000042c       __imp__LoadIconA@8         0041742c     user32:USER32.dll
 0002:00000430       __imp__LoadCursorA@8       00417430     user32:USER32.dll
 0002:00000434       __imp__RegisterClassExA@4  00417434     user32:USER32.dll
 0002:00000438       __imp__CreateWindowExA@48  00417438     user32:USER32.dll
 0002:0000043c       __imp__ShowWindow@8        0041743c     user32:USER32.dll
 0002:00000440       __imp__UpdateWindow@4      00417440     user32:USER32.dll
 0002:00000444       __imp__CreateDialogParamA@20 00417444     user32:USER32.dll
 0002:00000448       __imp__DialogBoxParamA@20  00417448     user32:USER32.dll
 0002:0000044c       __imp__MessageBoxA@16      0041744c     user32:USER32.dll
 0002:00000450       __imp__DestroyWindow@4     00417450     user32:USER32.dll
 0002:00000454       __imp__SendMessageA@16     00417454     user32:USER32.dll
 0002:00000458       __imp__BeginPaint@8        00417458     user32:USER32.dll
 0002:0000045c       __imp__GetDlgItem@8        0041745c     user32:USER32.dll
 0002:00000460       __imp__CloseClipboard@0    00417460     user32:USER32.dll
 0002:00000464       __imp__SetTimer@16         00417464     user32:USER32.dll
 0002:00000468       __imp__EndDialog@8         00417468     user32:USER32.dll
 0002:0000046c       __imp__DefWindowProcA@16   0041746c     user32:USER32.dll
 0002:00000470       __imp__PostQuitMessage@4   00417470     user32:USER32.dll
 0002:00000474       __imp__SetClassLongA@12    00417474     user32:USER32.dll
 0002:00000478       __imp__EmptyClipboard@0    00417478     user32:USER32.dll
 0002:0000047c       __imp__FillRect@12         0041747c     user32:USER32.dll
 0002:00000480       __imp__MoveWindow@24       00417480     user32:USER32.dll
 0002:00000484       \177USER32_NULL_THUNK_DATA 00417484     user32:USER32.dll
 0002:00000488       __imp__VMProtectEnd@0      00417488     VMProtectSDK32:VMProtectSDK32.dll
 0002:0000048c       __imp__VMProtectBegin@4    0041748c     VMProtectSDK32:VMProtectSDK32.dll
 0002:00000490       \177VMProtectSDK32_NULL_THUNK_DATA 00417490     VMProtectSDK32:VMProtectSDK32.dll
 0002:00000494       __imp__WSARecv@28          00417494     ws2_32:WS2_32.dll
 0002:00000498       __imp__inet_ntoa@4         00417498     ws2_32:WS2_32.dll
 0002:0000049c       __imp__WSAAccept@20        0041749c     ws2_32:WS2_32.dll
 0002:000004a0       __imp__WSASend@28          004174a0     ws2_32:WS2_32.dll
 0002:000004a4       __imp__listen@8            004174a4     ws2_32:WS2_32.dll
 0002:000004a8       __imp__bind@12             004174a8     ws2_32:WS2_32.dll
 0002:000004ac       __imp__WSAStartup@8        004174ac     ws2_32:WS2_32.dll
 0002:000004b0       __imp__socket@12           004174b0     ws2_32:WS2_32.dll
 0002:000004b4       __imp__htons@4             004174b4     ws2_32:WS2_32.dll
 0002:000004b8       __imp__gethostbyname@4     004174b8     ws2_32:WS2_32.dll
 0002:000004bc       __imp__connect@12          004174bc     ws2_32:WS2_32.dll
 0002:000004c0       __imp__WSAGetLastError@0   004174c0     ws2_32:WS2_32.dll
 0002:000004c4       __imp__closesocket@4       004174c4     ws2_32:WS2_32.dll
 0002:000004c8       __imp__recv@16             004174c8     ws2_32:WS2_32.dll
 0002:000004cc       __imp__send@16             004174cc     ws2_32:WS2_32.dll
 0002:000004d0       __imp__WSASocketA@24       004174d0     ws2_32:WS2_32.dll
 0002:000004d4       __imp__htonl@4             004174d4     ws2_32:WS2_32.dll
 0002:000004d8       \177WS2_32_NULL_THUNK_DATA 004174d8     ws2_32:WS2_32.dll
 0002:000004dc       __imp__MiniDumpWriteDump@28 004174dc     dbghelp:dbghelp.dll
 0002:000004e0       \177dbghelp_NULL_THUNK_DATA 004174e0     dbghelp:dbghelp.dll
 0002:000004e4       __imp__GdipGetImageEncoders@12 004174e4     gdiplus:gdiplus.dll
 0002:000004e8       __imp__GdipGetImageEncodersSize@8 004174e8     gdiplus:gdiplus.dll
 0002:000004ec       __imp__GdipCreateBitmapFromFile@8 004174ec     gdiplus:gdiplus.dll
 0002:000004f0       __imp__GdipCreateBitmapFromHBITMAP@12 004174f0     gdiplus:gdiplus.dll
 0002:000004f4       __imp__GdipCloneBrush@8    004174f4     gdiplus:gdiplus.dll
 0002:000004f8       __imp__GdipDeleteBrush@4   004174f8     gdiplus:gdiplus.dll
 0002:000004fc       __imp__GdipCreateSolidFill@8 004174fc     gdiplus:gdiplus.dll
 0002:00000500       __imp__GdipDeleteFont@4    00417500     gdiplus:gdiplus.dll
 0002:00000504       __imp__GdipCreateFont@20   00417504     gdiplus:gdiplus.dll
 0002:00000508       __imp__GdipCreateFontFamilyFromName@12 00417508     gdiplus:gdiplus.dll
 0002:0000050c       __imp__GdipDrawString@28   0041750c     gdiplus:gdiplus.dll
 0002:00000510       __imp__GdipSaveImageToFile@16 00417510     gdiplus:gdiplus.dll
 0002:00000514       __imp__GdipCreateFromHDC@8 00417514     gdiplus:gdiplus.dll
 0002:00000518       __imp__GdipCreateBitmapFromStream@8 00417518     gdiplus:gdiplus.dll
 0002:0000051c       __imp__GdipGetImagePixelFormat@8 0041751c     gdiplus:gdiplus.dll
 0002:00000520       __imp__GdipGetImageHeight@8 00417520     gdiplus:gdiplus.dll
 0002:00000524       __imp__GdipGetImageWidth@8 00417524     gdiplus:gdiplus.dll
 0002:00000528       __imp__GdipGetImagePaletteSize@8 00417528     gdiplus:gdiplus.dll
 0002:0000052c       __imp__GdipGetImagePalette@12 0041752c     gdiplus:gdiplus.dll
 0002:00000530       __imp__GdipBitmapLockBits@20 00417530     gdiplus:gdiplus.dll
 0002:00000534       __imp__GdipBitmapUnlockBits@8 00417534     gdiplus:gdiplus.dll
 0002:00000538       __imp__GdipCreateBitmapFromScan0@24 00417538     gdiplus:gdiplus.dll
 0002:0000053c       __imp__GdipCloneImage@8    0041753c     gdiplus:gdiplus.dll
 0002:00000540       __imp__GdipAlloc@4         00417540     gdiplus:gdiplus.dll
 0002:00000544       __imp__GdipFree@4          00417544     gdiplus:gdiplus.dll
 0002:00000548       __imp__GdipDisposeImage@4  00417548     gdiplus:gdiplus.dll
 0002:0000054c       __imp__GdipGetImageGraphicsContext@8 0041754c     gdiplus:gdiplus.dll
 0002:00000550       __imp__GdipDeleteGraphics@4 00417550     gdiplus:gdiplus.dll
 0002:00000554       __imp__GdipDrawImageI@16   00417554     gdiplus:gdiplus.dll
 0002:00000558       __imp__GdiplusShutdown@4   00417558     gdiplus:gdiplus.dll
 0002:0000055c       __imp__GdiplusStartup@12   0041755c     gdiplus:gdiplus.dll
 0002:00000560       __imp__GdipDeleteFontFamily@4 00417560     gdiplus:gdiplus.dll
 0002:00000564       \177gdiplus_NULL_THUNK_DATA 00417564     gdiplus:gdiplus.dll
 0002:00000568       __imp__CreateStreamOnHGlobal@12 00417568     ole32:ole32.dll
 0002:0000056c       \177ole32_NULL_THUNK_DATA  0041756c     ole32:ole32.dll
 0002:00000570       ___xc_a                    00417570     MSVCRT:cinitexe.obj
 0002:000005cc       ___xc_z                    004175cc     MSVCRT:cinitexe.obj
 0002:000005d0       ___xi_a                    004175d0     MSVCRT:cinitexe.obj
 0002:000005e0       ___xi_z                    004175e0     MSVCRT:cinitexe.obj
 0002:0000060c       _GUID_NULL                 0041760c     uuid:cguid_i.obj
 0002:00000620       ??_7type_info@@6B@         00417620     MSVCRT:ti_inst.obj
 0002:0000062c       ??_7CWin32Heap@ATL@@6B@    0041762c     atls:atlstr.obj
 0002:00000640       ??_7CAtlStringMgr@ATL@@6B@ 00417640     atls:atlstr.obj
 0002:00000658       _GUID_ATLVer30             00417658     atls:atlbase.obj
 0002:00000668       _GUID_ATLVer70             00417668     atls:atlbase.obj
 0002:00000678       _GUID_ATLVer100            00417678     atls:atlbase.obj
 0002:00000688       _ImageFormatJPEG           00417688     gdiplus:imagingguds.obj
 0002:00000c98       ??_C@_01CLKCMJKC@?5?$AA@   00417c98     pugixml.obj
 0002:00000c9c       ??_C@_02DPKJAMEF@?$CFd?$AA@ 00417c9c     pugixml.obj
 0002:00000c9f       ??_C@_00CNPNBAHC@?$AA@     00417c9f     pugixml.obj
 0002:00000ca0       ??_C@_02JDPG@rb?$AA@       00417ca0     pugixml.obj
 0002:00000ca4       ??_C@_02GMLFBBN@wb?$AA@    00417ca4     pugixml.obj
 0002:00000ca8       ??_C@_0BA@JFNIOLAK@string?5too?5long?$AA@ 00417ca8     pugixml.obj
 0002:00000cb8       ??_C@_0BI@CFPLBAOH@invalid?5string?5position?$AA@ 00417cb8     pugixml.obj
 0002:00000cd4       ??_7bad_alloc@std@@6B@     00417cd4     pugixml.obj
 0002:00000ce0       ??_7CAuthenticate@@6B@     00417ce0     Authenticate.obj
 0002:00000ce4       ??_C@_03JBJLGPFL@end?$AA@  00417ce4     BlackList.obj
 0002:00000ce8       ??_C@_0BE@IBPEDIIJ@?$CFs?5Error?5De?5Lectura?$AA@ 00417ce8     BlackList.obj
 0002:00000cfc       ??_C@_06FCGCPEED@?$CFs?4bak?$AA@ 00417cfc     BlackList.obj
 0002:00000d04       ??_C@_01GBGANLPD@0?$AA@    00417d04     BlackList.obj
 0002:00000d08       ??_C@_01BJJEKLCA@?$CC?$AA@ 00417d08     BlackList.obj
 0002:00000d0c       ??_C@_01HIHLOKLC@1?$AA@    00417d0c     BlackList.obj
 0002:00000d10       ??_C@_0BD@OLBABOEK@vector?$DMT?$DO?5too?5long?$AA@ 00417d10     BlackList.obj
 0002:00000d2c       ??_7?$basic_filebuf@DU?$char_traits@D@std@@@std@@6B@ 00417d2c     BlackList.obj
 0002:00000d6c       ??_7?$basic_ofstream@DU?$char_traits@D@std@@@std@@6B@ 00417d6c     BlackList.obj
 0002:00000d74       ??_7CBlackList@@6B@        00417d74     BlackList.obj
 0002:00000d78       ??_C@_08EPJLHIJG@bad?5cast?$AA@ 00417d78     BlackList.obj
 0002:00000d84       ??_C@_0CD@HDMPEILL@?$FLClientManager?$FN?$FL?$CFd?$FN?5AddClient?5?$CI?$CF@ 00417d84     ClientManager.obj
 0002:00000da8       ??_C@_0CD@IHEEMECL@?$FLClientManager?$FN?$FL?$CFd?$FN?5DelClient?5?$CI?$CF@ 00417da8     ClientManager.obj
 0002:00000dcc       ??_C@_0DA@DCNIIOGP@?$FLClientManager?$FN?$FL?$CFd?$FN?5ClientInfo?5?$CI@ 00417dcc     ClientManager.obj
 0002:00000e00       ??_7CClientManager@@6B@    00417e00     ClientManager.obj
 0002:00000e0c       ??_7?$basic_stringbuf@DU?$char_traits@D@std@@V?$allocator@D@2@@std@@6B@ 00417e0c     computerHash.obj
 0002:00000e4c       ??_7?$basic_stringstream@DU?$char_traits@D@std@@V?$allocator@D@2@@std@@6B@ 00417e4c     computerHash.obj
 0002:00000e50       ??_8?$basic_ofstream@DU?$char_traits@D@std@@@std@@7B@ 00417e50     BlackList.obj
 0002:00000e50       ??_8?$basic_stringstream@DU?$char_traits@D@std@@V?$allocator@D@2@@std@@7B?$basic_istream@DU?$char_traits@D@std@@@1@@ 00417e50     computerHash.obj
 0002:00000e58       ??_8?$basic_stringstream@DU?$char_traits@D@std@@V?$allocator@D@2@@std@@7B?$basic_ostream@DU?$char_traits@D@std@@@1@@ 00417e58     computerHash.obj
 0002:00000e64       ??_7CCriticalSection@@6B@  00417e64     CriticalSection.obj
 0002:00000e68       ??_C@_0DB@BNBDJNPH@GET?5?$CFs?5HTTP?11?41?$AN?6Host?3?5?$CFs?$AN?6Conne@ 00417e68     FileDownloadHTTP.obj
 0002:00000e9c       ??_C@_08JAFHAICJ@HTTP?11?40?$AA@ 00417e9c     FileDownloadHTTP.obj
 0002:00000ea8       ??_C@_08IJEMDJGI@HTTP?11?41?$AA@ 00417ea8     FileDownloadHTTP.obj
 0002:00000eb4       ??_C@_03GACAABJG@?3?1?1?$AA@ 00417eb4     FileDownloadURL.obj
 0002:00000eb8       ??_C@_03LMDBDBEG@ftp?$AA@  00417eb8     FileDownloadURL.obj
 0002:00000ebc       ??_C@_01KMDKNFGN@?1?$AA@   00417ebc     FileDownloadURL.obj
 0002:00000ec0       ??_C@_0BA@PBBGDMDP@?4?2MHPServer?4ini?$AA@ 00417ec0     HackServer.obj
 0002:00000ed0       ??_C@_0O@NOELKLHH@MHPServerInfo?$AA@ 00417ed0     HackServer.obj
 0002:00000ee0       ??_C@_05HPIDIGDA@1?47?40?$AA@ 00417ee0     HackServer.obj
 0002:00000ee8       ??_C@_0CM@DGOACMGE@Antihack?5Server?5?$CIVersion?3?5?$CFs?$CJ?5?5?$CI@ 00417ee8     HackServer.obj
 0002:00000f14       ??_C@_0CD@EEEDCGMD@WSAStartup?$CI?$CJ?5failed?5with?5error?3?5@ 00417f14     HackServer.obj
 0002:00000f38       ??_C@_0BE@GHBIMHOA@Confirm?5Server?5Exit?$AA@ 00417f38     HackServer.obj
 0002:00000f4c       ??_C@_0CJ@PEIFHBLO@Are?5you?5sure?5you?5want?5to?5exit?5MH@ 00417f4c     HackServer.obj
 0002:00000f78       ??_C@_0BA@OIOIAGLE@?$CFd?5Banned?5Users?$AA@ 00417f78     HackServer.obj
 0002:00000f88       ??_C@_06PNALCGN@SCREEN?$AA@ 00417f88     HackServer.obj
 0002:00000f90       ??_C@_0O@IJGGEEB@SysListView32?$AA@ 00417f90     HackServer.obj
 0002:00000fa0       ??_C@_04FABLJDN@Name?$AA@  00417fa0     HackServer.obj
 0002:00000fa8       ??_C@_03POOIBDAP@PID?$AA@  00417fa8     HackServer.obj
 0002:00000fac       ??_C@_04HMIIHGGM@Path?$AA@ 00417fac     HackServer.obj
 0002:00000fb4       ??_C@_05NAOIJFC@Error?$AA@ 00417fb4     HackServer.obj
 0002:00000fbc       ??_C@_0BF@KBMMEMIE@No?5items?5in?5ListView?$AA@ 00417fbc     HackServer.obj
 0002:00000fd4       ??_C@_0CC@OCPCLIKB@Could?5not?5create?5ListView?5elemen@ 00417fd4     HackServer.obj
 0002:00000ff8       ??_C@_0N@OAECLGMI@Process?5List?$AA@ 00417ff8     HackServer.obj
 0002:00001008       ??_C@_0BK@FOOAIBAP@header?3?50x?$CFx?0?5ip_addr?3?5?$CFs?$AA@ 00418008     HackServerProtocol.obj
 0002:00001024       ??_C@_0BD@EGFBOHJM@Paquete?5Incorrecto?$AA@ 00418024     HackServerProtocol.obj
 0002:00001038       ??_C@_0DE@EPOAHNFO@?$FLHWID?5Limit?$FN?5Connection?5rejected@ 00418038     HackServerProtocol.obj
 0002:0000106c       ??_C@_0P@JFOLCNLF@DUMP_DETECTION?$AA@ 0041806c     HackServerProtocol.obj
 0002:0000107c       ??_C@_0BF@MKJGMPLE@EXECUTABLE_DETECTION?$AA@ 0041807c     HackServerProtocol.obj
 0002:00001094       ??_C@_0P@DIAHHCAM@FILE_DETECTION?$AA@ 00418094     HackServerProtocol.obj
 0002:000010a4       ??_C@_0BH@GAHMJHAK@FILE_MAPPING_DETECTION?$AA@ 004180a4     HackServerProtocol.obj
 0002:000010bc       ??_C@_0BC@BCBGLHB@LIBRARY_DETECTION?$AA@ 004180bc     HackServerProtocol.obj
 0002:000010d0       ??_C@_0BD@CONKPOKP@REGISTRY_DETECTION?$AA@ 004180d0     HackServerProtocol.obj
 0002:000010e4       ??_C@_0BB@FMCBIKAD@MEMORY_DETECTION?$AA@ 004180e4     HackServerProtocol.obj
 0002:000010f8       ??_C@_0BB@JKCBFLMB@WINDOW_DETECTION?$AA@ 004180f8     HackServerProtocol.obj
 0002:0000110c       ??_C@_0BA@MJLLBJJH@MACRO_DETECTION?$AA@ 0041810c     HackServerProtocol.obj
 0002:0000111c       ??_C@_0BD@HJMECIHL@DEBUGGER_DETECTION?$AA@ 0041811c     HackServerProtocol.obj
 0002:00001130       ??_C@_0BC@KNBGAMGO@DEFAULT_DETECTION?$AA@ 00418130     HackServerProtocol.obj
 0002:00001148       ??_C@_0GK@CPLCDGFK@?$FLHackDetected?$FN?$FL?$CFs?$FN?$FL?$CFs?$FN?5IpAddress@ 00418148     HackServerProtocol.obj
 0002:000011b4       ??_C@_0M@PCENNPGA@?$CFd?4?$CFd?4?$CFd?4?$CFd?$AA@ 004181b4     HelperPlayers.obj
 0002:000011c0       ??_C@_0CA@NKANOPAD@XXXXXXX?9XXXXXXX?9XXXXXXX?9XXXXXXX?$AA@ 004181c0     HelperPlayers.obj
 0002:000011e0       ??_C@_07JAEGOAMJ@?$CFd?$CJ?4?5?$CFs?$AA@ 004181e0     HelperPlayers.obj
 0002:000011e8       ??_C@_0O@HIDABEEO@BlackList?4txt?$AA@ 004181e8     HelperPlayers.obj
 0002:000011f8       ??_C@_0BD@NAKOGEGP@Could?5not?5get?5text?$AA@ 004181f8     HelperPlayers.obj
 0002:0000120c       ??_C@_0CP@KEIMFOIM@?$FLUserAccount?$FN?5Error?4?5Could?5not?5g@ 0041820c     HelperPlayers.obj
 0002:0000123c       ??_C@_0CI@BOGBEGNM@Player?5Information?5?$CIConnected?5?$CFd@ 0041823c     HelperPlayers.obj
 0002:00001264       ??_C@_0N@KIGEFEPP@?$CFd?$CJ?4?5?$CFs?5?$FL?$CFd?$FN?$AA@ 00418264     HelperPlayers.obj
 0002:00001274       ??_C@_0CJ@CBJPIGCO@You?5do?5not?5have?5access?5to?5this?5f@ 00418274     HelperPlayers.obj
 0002:000012a0       ??_C@_0CG@CJNELEII@?$FLAccountInfo?$FN?5Error?4?5Index?5incor@ 004182a0     HelperPlayers.obj
 0002:000012c8       ??_C@_0GA@DKABHNNA@?o?$LP?$LNLas?5Prohibiciones?5Temporales?5@ 004182c8     HidManager.obj
 0002:00001328       ??_C@_0BM@PAPJHAGI@invalid?5map?1set?$DMT?$DO?5iterator?$AA@ 00418328     HidManager.obj
 0002:00001344       ??_C@_0BE@JONHPENG@map?1set?$DMT?$DO?5too?5long?$AA@ 00418344     HidManager.obj
 0002:0000135c       ??_7CHidManager@@6B@       0041835c     HidManager.obj
 0002:00001364       ??_7CIpManager@@6B@        00418364     IpManager.obj
 0002:00001368       ??_C@_0BI@GMMPBNOK@?4?2?$CFs?2?$CF04d?9?$CF02d?9?$CF02d?4txt?$AA@ 00418368     Log.obj
 0002:00001380       ??_C@_0BE@KLKJJEKO@?$CF02d?3?$CF02d?3?$CF02d?5?$CFs?$AN?6?$AA@ 00418380     Log.obj
 0002:00001398       ??_7CLog@@6B@              00418398     Log.obj
 0002:0000139c       ??_C@_02DKCKIIND@?$CFs?$AA@ 0041839c     MemScript.obj
 0002:000013a0       ??_C@_0BJ@EMPGHHOH@?$CFs?5Archivo?5No?5Encontrado?$AA@ 004183a0     MemScript.obj
 0002:000013bc       ??_C@_02EMFKHFLK@?$CFX?$AA@ 004183bc     MemScript.obj
 0002:000013c4       ??_7CMemScript@@6B@        004183c4     MemScript.obj
 0002:000013c8       ??_C@_01NBENCBCI@?$CK?$AA@ 004183c8     MemScript.obj
 0002:000013cc       ??_C@_0BH@IILLLNL@?$CFd?9?$CFd?9?$CFd_?$CFdh?$CFdm?$CFds?4dmp?$AA@ 004183cc     MiniDump.obj
 0002:000013e4       ??_C@_09NJOACHAF@Downloads?$AA@ 004183e4     ProcessListInfo.obj
 0002:000013f0       ??_C@_0BC@CMEOCNJO@Total?5process?3?5?$CFd?$AA@ 004183f0     ProcessListInfo.obj
 0002:00001404       ??_C@_04BEADLPGM@INFO?$AA@ 00418404     ProcessListInfo.obj
 0002:0000140c       ??_C@_0CM@EIINAICP@Dump?5data?5successfully?5copied?5to@ 0041840c     ProcessListInfo.obj
 0002:00001438       ??_C@_0BG@KGEINCOD@Can?8t?5open?5clipboard?$CB?$AA@ 00418438     ProcessListInfo.obj
 0002:00001450       ??_C@_02NDKNKOCB@?3?6?$AA@ 00418450     ProcessListInfo.obj
 0002:00001454       ??_C@_06BKKJGDHO@Window?$AA@ 00418454     ProcessListInfo.obj
 0002:0000145c       ??_C@_01EEMJAFIK@?6?$AA@   0041845c     ProcessListInfo.obj
 0002:00001460       ??_C@_0N@MINGDDPH@WindowName?3?5?$AA@ 00418460     ProcessListInfo.obj
 0002:00001470       ??_C@_02PHMGELLB@?6?6?$AA@ 00418470     ProcessListInfo.obj
 0002:00001474       ??_C@_0O@CDIIHCHH@WindowClass?3?5?$AA@ 00418474     ProcessListInfo.obj
 0002:00001484       ??_C@_0L@GGLNAGPA@Downloads?2?$AA@ 00418484     ProcessListInfo.obj
 0002:00001490       ??_C@_0P@LHAHGELH@File?5is?5loaded?$AA@ 00418490     ProcessListInfo.obj
 0002:000014a0       ??_C@_0O@PDEHOHG@MHPDetect?4dll?$AA@ 004184a0     ProcessManager.obj
 0002:000014b0       ??_C@_0P@FMNHLPJL@GameServer?4exe?$AA@ 004184b0     ProcessManager.obj
 0002:000014c0       ??_C@_0DN@ILLKHCLO@?$FLProcessManager?$FN?$FL?$CFd?$FN?$FL?$CFs?$FN?5?$KBNo?5se?5@ 004184c0     ProcessManager.obj
 0002:00001500       ??_C@_0DC@DDPHDOGI@?$FLProcessManager?$FN?$FL?$CFd?$FN?$FL?$CFs?$FN?5?$KBInicia@ 00418500     ProcessManager.obj
 0002:00001534       ??_C@_0N@LOMLCOFC@LoadLibraryA?$AA@ 00418534     ProcessManager.obj
 0002:00001544       ??_C@_08FGMADGLH@XTMPID?$CFd?$AA@ 00418544     ProcessManager.obj
 0002:00001554       ??_7CProcessManager@@6B@   00418554     ProcessManager.obj
 0002:00001558       ??_C@_0N@MDJJJHMB@kernel32?4dll?$AA@ 00418558     ProcessManager.obj
 0002:00001568       ??_C@_04POHDAIJG@Auth?$AA@ 00418568     Protection.obj
 0002:00001570       ??_C@_04MKAEOIHP@OBBY?$AA@ 00418570     Protection.obj
 0002:0000157c       ??_7CProtection@@6B@       0041857c     Protection.obj
 0002:00001580       ??_C@_0BC@KBDMBKEH@deque?$DMT?$DO?5too?5long?$AA@ 00418580     Queue.obj
 0002:00001598       ??_7CQueue@@6B@            00418598     Queue.obj
 0002:0000159c       ??_C@_0DL@MJPBJJHG@?$FLBase?5de?5datos?$FN?5Espere?5la?5actual@ 0041859c     ReadFiles.obj
 0002:000015d8       ??_C@_0EA@KEFLMACO@?$FLBase?5de?5datos?$FN?5Espere?5a?5que?5se?5@ 004185d8     ReadFiles.obj
 0002:00001618       ??_C@_0BN@EBEDDLDK@?4?2Data?2Internal?4List?4part?4db?$AA@ 00418618     ReadFiles.obj
 0002:00001638       ??_C@_0BI@IBLGPMF@?4?2Data?2Internal?4List?4db?$AA@ 00418638     ReadFiles.obj
 0002:00001650       ??_C@_0DG@GMADOANB@?$FLDatabase?$FN?5No?5se?5pudo?5actualizar@ 00418650     ReadFiles.obj
 0002:00001688       ??_C@_0CJ@PEKLPFJL@?$FLBase?5de?5datos?$FN?5Actualizada?5exit@ 00418688     ReadFiles.obj
 0002:000016b8       ??_7CReadFiles@@6B@        004186b8     ReadFiles.obj
 0002:000016bc       ??_C@_0M@LGMEACEF@ScreenShots?$AA@ 004186bc     ScreenShot.obj
 0002:000016c8       ??_C@_0DP@FFHHOOLC@ERROR?$CB?5?$KBLa?5longitud?5del?5b?zfer?5es@ 004186c8     ScreenShot.obj
 0002:00001708       ??_C@_1BK@IBJIDAPJ@?$AAA?$AAc?$AAc?$AAo?$AAu?$AAn?$AAt?$AA?3?$AA?5?$AA?$CF?$AAh?$AAs?$AA?$AA@ 00418708     ScreenShot.obj
 0002:00001724       ??_C@_1BE@HBDOOMOK@?$AAN?$AAa?$AAm?$AAe?$AA?3?$AA?5?$AA?$CF?$AAh?$AAs?$AA?$AA@ 00418724     ScreenShot.obj
 0002:00001738       ??_C@_1CA@KIBCBGHH@?$AAI?$AAP?$AA?5?$AAA?$AAd?$AAd?$AAr?$AAe?$AAs?$AAs?$AA?3?$AA?5?$AA?$CF?$AAh?$AAs?$AA?$AA@ 00418738     ScreenShot.obj
 0002:00001758       ??_C@_1BE@JMPMDMFD@?$AAH?$AAw?$AAi?$AAd?$AA?3?$AA?5?$AA?$CF?$AAh?$AAs?$AA?$AA@ 00418758     ScreenShot.obj
 0002:0000176c       ??_C@_1M@KAKMLIHO@?$AAA?$AAr?$AAi?$AAa?$AAl?$AA?$AA@ 0041876c     ScreenShot.obj
 0002:00001778       ??_C@_0CP@KCGNANMK@ScreenShots?2?$CFs?9?$CFs?2?$CF04d?9?$CF02d?9?$CF02d@ 00418778     ScreenShot.obj
 0002:000017a8       ??_C@_0BC@HIADGHMI@ScreenShots?2?$CFs?9?$CFs?$AA@ 004187a8     ScreenShot.obj
 0002:000017bc       ??_C@_13PJJBFPED@?$AA?$DL?$AA?$AA@ 004187bc     ScreenShot.obj
 0002:000017c4       ??_7Brush@Gdiplus@@6B@     004187c4     ScreenShot.obj
 0002:000017d0       ??_7Bitmap@Gdiplus@@6B@    004187d0     ScreenShot.obj
 0002:000017dc       ??_7Image@Gdiplus@@6B@     004187dc     ScreenShot.obj
 0002:000017e8       ??_7SolidBrush@Gdiplus@@6B@ 004187e8     ScreenShot.obj
 0002:000017f4       ??_7CImage@ATL@@6B@        004187f4     ScreenShot.obj
 0002:000017f8       ??_C@_0EN@GMECDMBC@?$FLScreenShow?$FN?5?$KBERROR?$CB?5?$KBLa?5longitu@ 004187f8     ScreenShow.obj
 0002:00001848       ??_C@_08GAOCMOKB@logo?4png?$AA@ 00418848     ScreenShow.obj
 0002:00001858       ??_C@_1EA@OHAEOILL@?$AAF?$AAP?$AAS?$AA?3?$AA?5?$AA?$CF?$AAd?$AA?0?$AA?5?$AAC?$AAo?$AAn?$AAt?$AAe?$AAo?$AA?5?$AAd?$AAe?$AA?5?$AAp?$AAa?$AAn?$AAt?$AAa?$AAl?$AAl?$AAa?$AA?3?$AA?5?$AA?$CF?$AAd?$AA?$AA@ 00418858     ScreenShow.obj
 0002:00001898       ??_C@_1CM@ILPIDPKA@?$AAC?$AAa?$AAl?$AAi?$AAd?$AAa?$AAd?$AA?5?$AAd?$AAe?$AA?5?$AAi?$AAm?$AAa?$AAg?$AAe?$AAn?$AA?3?$AA?5?$AA?$CF?$AAd?$AA?$AA@ 00418898     ScreenShow.obj
 0002:000018c4       ??_C@_0N@JINNABAC@Mostrar?3?5?$CD?$CFd?$AA@ 004188c4     ScreenShow.obj
 0002:000018d8       ??_7CScreenShow@@6B@       004188d8     ScreenShow.obj
 0002:000018dc       ??_C@_05MOECANKB@Times?$AA@ 004188dc     ServerDisplayer.obj
 0002:000018e4       ??_C@_0N@OGFNLICO@CONEXION?5OFF?$AA@ 004188e4     ServerDisplayer.obj
 0002:000018f4       ??_C@_0O@BHGJCHAL@SERVER?5ACTIVO?$AA@ 004188f4     ServerDisplayer.obj
 0002:00001904       ??_C@_03MLIHNEFJ@LOG?$AA@  00418904     ServerDisplayer.obj
 0002:00001908       ??_C@_0N@PGGOIJIB@LOG?2HACK_LOG?$AA@ 00418908     ServerDisplayer.obj
 0002:00001918       ??_C@_0DM@DOHDNKDK@Antihack?5Server?5?$CIVersion?3?5?$CFs?$CJ?5?5?$CI@ 00418918     ServerDisplayer.obj
 0002:00001958       ??_7CServerDisplayer@@6B@  00418958     ServerDisplayer.obj
 0002:0000195c       ??_C@_0BA@GGPBHHI@?4?2Data?2info?4xtm?$AA@ 0041895c     ServerInfo.obj
 0002:0000196c       ??_C@_0CJ@EEFLNNE@?$FLServerInfo?$FN?5Config?5Cargado?5Exit@ 0041896c     ServerInfo.obj
 0002:00001998       ??_C@_0BE@KKEAOHDK@?4?2Data?2Dump?4List?4db?$AA@ 00418998     ServerInfo.obj
 0002:000019ac       ??_C@_0CL@KOOLFEJB@?$FLServerInfo?$FN?5DumpList?5Cargado?5Ex@ 004189ac     ServerInfo.obj
 0002:000019d8       ??_C@_0BI@DMDFEKDO@?4?2Data?2Checksum?4List?4db?$AA@ 004189d8     ServerInfo.obj
 0002:000019f0       ??_C@_0CP@BOKFPNKL@?$FLServerInfo?$FN?5ChecksumList?5Cargad@ 004189f0     ServerInfo.obj
 0002:00001a20       ??_C@_0CP@MPLNKHAF@?$FLServerInfo?$FN?5InternalList?5Cargad@ 00418a20     ServerInfo.obj
 0002:00001a50       ??_C@_0BG@MOKOINNO@?4?2Data?2Window?4List?4db?$AA@ 00418a50     ServerInfo.obj
 0002:00001a68       ??_C@_0CN@DBGDFBIO@?$FLServerInfo?$FN?5WindowList?5Cargado?5@ 00418a68     ServerInfo.obj
 0002:00001a98       ??_C@_0BA@LJOBOGNM@?4?2BlackList?4txt?$AA@ 00418a98     ServerInfo.obj
 0002:00001aa8       ??_C@_0CM@OLJIKLPN@?$FLServerInfo?$FN?5BlackList?5Cargado?5E@ 00418aa8     ServerInfo.obj
 0002:00001ad4       ??_C@_0N@LPMLCGKE@CustomerName?$AA@ 00418ad4     ServerInfo.obj
 0002:00001ae4       ??_C@_0BD@OPHDIACD@CustomerHardwareId?$AA@ 00418ae4     ServerInfo.obj
 0002:00001af8       ??_C@_0O@LJBOPJNH@MHPServerPort?$AA@ 00418af8     ServerInfo.obj
 0002:00001b08       ??_C@_0BA@JDDAMLGO@MaxIpConnection?$AA@ 00418b08     ServerInfo.obj
 0002:00001b18       ??_C@_0BC@DKPHPEDE@MaxHwidConnection?$AA@ 00418b18     ServerInfo.obj
 0002:00001b2c       ??_C@_0L@NNDIJKLJ@EncDecKey1?$AA@ 00418b2c     ServerInfo.obj
 0002:00001b38       ??_C@_0L@PGBFMJHK@EncDecKey2?$AA@ 00418b38     ServerInfo.obj
 0002:00001b44       ??_C@_0BA@JMOPBCGJ@EncDecSetNumber?$AA@ 00418b44     ServerInfo.obj
 0002:00001b54       ??_C@_0O@DNEICACF@ClientVersion?$AA@ 00418b54     ServerInfo.obj
 0002:00001b64       ??_C@_0N@HCBNCEBN@ClientSerial?$AA@ 00418b64     ServerInfo.obj
 0002:00001b74       ??_C@_0BC@NNFEGJBC@DetectionLockTime?$AA@ 00418b74     ServerInfo.obj
 0002:00001b88       ??_C@_0BB@GJJGDGCL@WriteProtocolLog?$AA@ 00418b88     ServerInfo.obj
 0002:00001b9c       ??_C@_0BA@KNDGCGML@InternalVersion?$AA@ 00418b9c     ServerInfo.obj
 0002:00001bac       ??_C@_0BA@NOBAJADJ@ReconnectSwitch?$AA@ 00418bac     ServerInfo.obj
 0002:00001bbc       ??_C@_0BC@KKNLIOHP@MemoryGuardSwitch?$AA@ 00418bbc     ServerInfo.obj
 0002:00001bd0       ??_C@_0BC@NFEIPKJA@MemoryGuardNumber?$AA@ 00418bd0     ServerInfo.obj
 0002:00001be4       ??_C@_0BD@DJDGGNKP@MacroProtectSwitch?$AA@ 00418be4     ServerInfo.obj
 0002:00001bf8       ??_C@_0BD@EGKFBJEA@MacroProtectNumber?$AA@ 00418bf8     ServerInfo.obj
 0002:00001c0c       ??_C@_0P@LFEFEDNJ@MemoryAddress1?$AA@ 00418c0c     ServerInfo.obj
 0002:00001c1c       ??_C@_0P@JOGIBABK@MemoryAddress2?$AA@ 00418c1c     ServerInfo.obj
 0002:00001c2c       ??_C@_0P@IHHDCBFL@MemoryAddress3?$AA@ 00418c2c     ServerInfo.obj
 0002:00001c3c       ??_C@_0P@MIDCLHJM@MemoryAddress4?$AA@ 00418c3c     ServerInfo.obj
 0002:00001c4c       ??_C@_0P@NBCJIGNN@MemoryAddress5?$AA@ 00418c4c     ServerInfo.obj
 0002:00001c5c       ??_C@_0P@PKAENFBO@MemoryAddress6?$AA@ 00418c5c     ServerInfo.obj
 0002:00001c6c       ??_C@_0P@ODBPOEFP@MemoryAddress7?$AA@ 00418c6c     ServerInfo.obj
 0002:00001c7c       ??_C@_0P@GEIHPIJA@MemoryAddress8?$AA@ 00418c7c     ServerInfo.obj
 0002:00001c90       ??_7CServerInfo@@6B@       00418c90     ServerInfo.obj
 0002:00001c94       ??_C@_0DI@GOOFFMBM@El?5servidor?5?$FLSocketManager?$FN?5se?5i@ 00418c94     SocketManager.obj
 0002:00001ccc       ??_C@_0DD@HMAKPMLA@?$FLSocketManager?$FN?5WSASocket?$CI?$CJ?5fall@ 00418ccc     SocketManager.obj
 0002:00001d00       ??_C@_0CO@NAEAAIBO@?$FLSocketManager?$FN?5bind?$CI?$CJ?5fall?s?5con@ 00418d00     SocketManager.obj
 0002:00001d30       ??_C@_0DD@NADKHJCN@?$FLSocketManager?$FN?5listening?$CI?$CJ?5fall@ 00418d30     SocketManager.obj
 0002:00001d64       ??_C@_0DA@DGOOFFMO@?$FLSocketManager?$FN?5socket?$CI?$CJ?5fall?s?5c@ 00418d64     SocketManager.obj
 0002:00001d98       ??_C@_0EA@GDJGOIMN@?$FLSocketManager?$FN?5CreateIoCompleti@ 00418d98     SocketManager.obj
 0002:00001dd8       ??_C@_0DG@EOLNEHOL@?$FLSocketManager?$FN?5CreateThread?$CI?$CJ?5f@ 00418dd8     SocketManager.obj
 0002:00001e10       ??_C@_0DL@BGAPLMIM@?$FLSocketManager?$FN?5SetThreadPriorit@ 00418e10     SocketManager.obj
 0002:00001e4c       ??_C@_0DJ@ONHDANIA@?$FLSocketManager?$FN?5CreateSemaphore?$CI@ 00418e4c     SocketManager.obj
 0002:00001e88       ??_C@_0EO@PGCOLNJL@?$FLSocketManager?$FN?5Error?5de?5encabez@ 00418e88     SocketManager.obj
 0002:00001ed8       ??_C@_0GE@JGAOKMIE@?$FLSocketManager?$FN?5Error?5de?5tama?qo?5@ 00418ed8     SocketManager.obj
 0002:00001f40       ??_C@_0EL@MDBGIFNN@?$FLSocketManager?$FN?5Tama?qo?5m?aximo?5de@ 00418f40     SocketManager.obj
 0002:00001f90       ??_C@_0EL@HAICKIBO@?$FLSocketManager?$FN?5Tama?qo?5m?aximo?5de@ 00418f90     SocketManager.obj
 0002:00001fdc       ??_C@_0DB@HGBNMEH@?$FLSocketManager?$FN?5WSASend?$CI?$CJ?5fall?s?5@ 00418fdc     SocketManager.obj
 0002:00002010       ??_C@_0DF@GFAPHNPB@?$FLSocketManager?$FN?5closesocket?$CI?$CJ?5fa@ 00419010     SocketManager.obj
 0002:00002048       ??_C@_0DB@LCKAEDBJ@?$FLSocketManager?$FN?5WSARecv?$CI?$CJ?5fall?s?5@ 00419048     SocketManager.obj
 0002:0000207c       ??_C@_0DD@DGLGLHAC@?$FLSocketManager?$FN?5WSAAccept?$CI?$CJ?5fall@ 0041907c     SocketManager.obj
 0002:000020b0       ??_C@_0ED@BOFOAICG@?$FLSocketManager?$FN?5GetQueuedComplet@ 004190b0     SocketManager.obj
 0002:000020f4       ??_C@_0DN@CPMFGLFO@?$FLSocketManager?$FN?5WaitForSingleObj@ 004190f4     SocketManager.obj
 0002:00002138       ??_7CSocketManager@@6B@    00419138     SocketManager.obj
 0002:0000213c       ??_C@_0N@LDHBEHHJ@?$FL0123456789?$FN?$AA@ 0041913c     Util.obj
 0002:0000214c       ??_C@_07HIDEBALK@?$CF?48s?5?$CFs?$AA@ 0041914c     Util.obj
 0002:00002154       ??_C@_0BG@HGEDEDEC@invalid?5stoi?5argument?$AA@ 00419154     Util.obj
 0002:0000216c       ??_C@_0BL@MFFNMGGC@stoi?5argument?5out?5of?5range?$AA@ 0041916c     Util.obj
 0002:00002188       __real@bf800000            00419188      CIL library: CIL module
 0002:00002190       __real@4059000000000000    00419190      CIL library: CIL module
 0002:00002198       __real@4f800000            00419198      CIL library: CIL module
 0002:0000219c       __real@42440000            0041919c      CIL library: CIL module
 0002:000021a0       __real@41f00000            004191a0      CIL library: CIL module
 0002:000021a4       __real@41800000            004191a4      CIL library: CIL module
 0002:000021a8       __real@42700000            004191a8      CIL library: CIL module
 0002:000021ac       __real@42200000            004191ac      CIL library: CIL module
 0002:000021b0       __real@41a00000            004191b0      CIL library: CIL module
 0002:000021b8       __load_config_used         004191b8     MSVCRT:loadcfg.obj
 0002:00002264       ??_R4type_info@@6B@        00419264     MSVCRT:ti_inst.obj
 0002:00002278       ??_R3type_info@@8          00419278     MSVCRT:ti_inst.obj
 0002:00002288       ??_R2type_info@@8          00419288     MSVCRT:ti_inst.obj
 0002:00002290       ??_R1A@?0A@EA@type_info@@8 00419290     MSVCRT:ti_inst.obj
 0002:000022ac       ??_R4bad_alloc@std@@6B@    004192ac     pugixml.obj
 0002:000022c0       ??_R3bad_alloc@std@@8      004192c0     pugixml.obj
 0002:000022d0       ??_R2bad_alloc@std@@8      004192d0     pugixml.obj
 0002:000022dc       ??_R1A@?0A@EA@exception@std@@8 004192dc     pugixml.obj
 0002:000022f8       ??_R3exception@std@@8      004192f8     pugixml.obj
 0002:00002308       ??_R2exception@std@@8      00419308     pugixml.obj
 0002:00002310       ??_R1A@?0A@EA@bad_alloc@std@@8 00419310     pugixml.obj
 0002:0000232c       ??_R4CAuthenticate@@6B@    0041932c     Authenticate.obj
 0002:00002340       ??_R3CAuthenticate@@8      00419340     Authenticate.obj
 0002:00002350       ??_R2CAuthenticate@@8      00419350     Authenticate.obj
 0002:00002358       ??_R1A@?0A@EA@CAuthenticate@@8 00419358     Authenticate.obj
 0002:00002374       ??_R4CBlackList@@6B@       00419374     BlackList.obj
 0002:00002388       ??_R3CBlackList@@8         00419388     BlackList.obj
 0002:00002398       ??_R2CBlackList@@8         00419398     BlackList.obj
 0002:000023a0       ??_R1A@?0A@EA@CBlackList@@8 004193a0     BlackList.obj
 0002:000023bc       ??_R4?$basic_ofstream@DU?$char_traits@D@std@@@std@@6B@ 004193bc     BlackList.obj
 0002:000023d0       ??_R3?$basic_ofstream@DU?$char_traits@D@std@@@std@@8 004193d0     BlackList.obj
 0002:000023e0       ??_R2?$basic_ofstream@DU?$char_traits@D@std@@@std@@8 004193e0     BlackList.obj
 0002:000023f8       ??_R1A@?0A@EA@?$basic_ostream@DU?$char_traits@D@std@@@std@@8 004193f8     BlackList.obj
 0002:00002414       ??_R3?$basic_ostream@DU?$char_traits@D@std@@@std@@8 00419414     BlackList.obj
 0002:00002424       ??_R2?$basic_ostream@DU?$char_traits@D@std@@@std@@8 00419424     BlackList.obj
 0002:00002438       ??_R17A@3EA@?$_Iosb@H@std@@8 00419438     BlackList.obj
 0002:00002454       ??_R1A@A@3EA@ios_base@std@@8 00419454     BlackList.obj
 0002:00002470       ??_R1A@A@3FA@?$basic_ios@DU?$char_traits@D@std@@@std@@8 00419470     BlackList.obj
 0002:0000248c       ??_R3?$basic_ios@DU?$char_traits@D@std@@@std@@8 0041948c     BlackList.obj
 0002:0000249c       ??_R2?$basic_ios@DU?$char_traits@D@std@@@std@@8 0041949c     BlackList.obj
 0002:000024ac       ??_R1A@?0A@EA@ios_base@std@@8 004194ac     BlackList.obj
 0002:000024c8       ??_R3ios_base@std@@8       004194c8     BlackList.obj
 0002:000024d8       ??_R2ios_base@std@@8       004194d8     BlackList.obj
 0002:000024e4       ??_R17?0A@EA@?$_Iosb@H@std@@8 004194e4     BlackList.obj
 0002:00002500       ??_R3?$_Iosb@H@std@@8      00419500     BlackList.obj
 0002:00002510       ??_R2?$_Iosb@H@std@@8      00419510     BlackList.obj
 0002:00002518       ??_R1A@?0A@EA@?$_Iosb@H@std@@8 00419518     BlackList.obj
 0002:00002534       ??_R1A@?0A@EA@?$basic_ios@DU?$char_traits@D@std@@@std@@8 00419534     BlackList.obj
 0002:00002550       ??_R1A@?0A@EA@?$basic_ofstream@DU?$char_traits@D@std@@@std@@8 00419550     BlackList.obj
 0002:0000256c       ??_R4?$basic_filebuf@DU?$char_traits@D@std@@@std@@6B@ 0041956c     BlackList.obj
 0002:00002580       ??_R3?$basic_filebuf@DU?$char_traits@D@std@@@std@@8 00419580     BlackList.obj
 0002:00002590       ??_R2?$basic_filebuf@DU?$char_traits@D@std@@@std@@8 00419590     BlackList.obj
 0002:0000259c       ??_R1A@?0A@EA@?$basic_streambuf@DU?$char_traits@D@std@@@std@@8 0041959c     BlackList.obj
 0002:000025b8       ??_R3?$basic_streambuf@DU?$char_traits@D@std@@@std@@8 004195b8     BlackList.obj
 0002:000025c8       ??_R2?$basic_streambuf@DU?$char_traits@D@std@@@std@@8 004195c8     BlackList.obj
 0002:000025d0       ??_R1A@?0A@EA@?$basic_filebuf@DU?$char_traits@D@std@@@std@@8 004195d0     BlackList.obj
 0002:000025ec       ??_R4CClientManager@@6B@   004195ec     ClientManager.obj
 0002:00002600       ??_R3CClientManager@@8     00419600     ClientManager.obj
 0002:00002610       ??_R2CClientManager@@8     00419610     ClientManager.obj
 0002:00002618       ??_R1A@?0A@EA@CClientManager@@8 00419618     ClientManager.obj
 0002:00002634       ??_R4?$basic_stringstream@DU?$char_traits@D@std@@V?$allocator@D@2@@std@@6B@ 00419634     computerHash.obj
 0002:00002648       ??_R3?$basic_stringstream@DU?$char_traits@D@std@@V?$allocator@D@2@@std@@8 00419648     computerHash.obj
 0002:00002658       ??_R2?$basic_stringstream@DU?$char_traits@D@std@@V?$allocator@D@2@@std@@8 00419658     computerHash.obj
 0002:00002684       ??_R1A@?0A@EA@?$basic_iostream@DU?$char_traits@D@std@@@std@@8 00419684     computerHash.obj
 0002:000026a0       ??_R3?$basic_iostream@DU?$char_traits@D@std@@@std@@8 004196a0     computerHash.obj
 0002:000026b0       ??_R2?$basic_iostream@DU?$char_traits@D@std@@@std@@8 004196b0     computerHash.obj
 0002:000026d8       ??_R1BA@?0A@EA@?$basic_ostream@DU?$char_traits@D@std@@@std@@8 004196d8     computerHash.obj
 0002:000026f4       ??_R1A@?0A@EA@?$basic_istream@DU?$char_traits@D@std@@@std@@8 004196f4     computerHash.obj
 0002:00002710       ??_R3?$basic_istream@DU?$char_traits@D@std@@@std@@8 00419710     computerHash.obj
 0002:00002720       ??_R2?$basic_istream@DU?$char_traits@D@std@@@std@@8 00419720     computerHash.obj
 0002:00002734       ??_R1A@?0A@EA@?$basic_stringstream@DU?$char_traits@D@std@@V?$allocator@D@2@@std@@8 00419734     computerHash.obj
 0002:00002750       ??_R4?$basic_stringbuf@DU?$char_traits@D@std@@V?$allocator@D@2@@std@@6B@ 00419750     computerHash.obj
 0002:00002764       ??_R3?$basic_stringbuf@DU?$char_traits@D@std@@V?$allocator@D@2@@std@@8 00419764     computerHash.obj
 0002:00002774       ??_R2?$basic_stringbuf@DU?$char_traits@D@std@@V?$allocator@D@2@@std@@8 00419774     computerHash.obj
 0002:00002780       ??_R1A@?0A@EA@?$basic_stringbuf@DU?$char_traits@D@std@@V?$allocator@D@2@@std@@8 00419780     computerHash.obj
 0002:0000279c       ??_R4CCriticalSection@@6B@ 0041979c     CriticalSection.obj
 0002:000027b0       ??_R3CCriticalSection@@8   004197b0     CriticalSection.obj
 0002:000027c0       ??_R2CCriticalSection@@8   004197c0     CriticalSection.obj
 0002:000027c8       ??_R1A@?0A@EA@CCriticalSection@@8 004197c8     CriticalSection.obj
 0002:000027e4       ??_R4CHidManager@@6B@      004197e4     HidManager.obj
 0002:000027f8       ??_R3CHidManager@@8        004197f8     HidManager.obj
 0002:00002808       ??_R2CHidManager@@8        00419808     HidManager.obj
 0002:00002810       ??_R1A@?0A@EA@CHidManager@@8 00419810     HidManager.obj
 0002:0000282c       ??_R4CIpManager@@6B@       0041982c     IpManager.obj
 0002:00002840       ??_R3CIpManager@@8         00419840     IpManager.obj
 0002:00002850       ??_R2CIpManager@@8         00419850     IpManager.obj
 0002:00002858       ??_R1A@?0A@EA@CIpManager@@8 00419858     IpManager.obj
 0002:00002874       ??_R4CLog@@6B@             00419874     Log.obj
 0002:00002888       ??_R3CLog@@8               00419888     Log.obj
 0002:00002898       ??_R2CLog@@8               00419898     Log.obj
 0002:000028a0       ??_R1A@?0A@EA@CLog@@8      004198a0     Log.obj
 0002:000028bc       ??_R4CMemScript@@6B@       004198bc     MemScript.obj
 0002:000028d0       ??_R3CMemScript@@8         004198d0     MemScript.obj
 0002:000028e0       ??_R2CMemScript@@8         004198e0     MemScript.obj
 0002:000028e8       ??_R1A@?0A@EA@CMemScript@@8 004198e8     MemScript.obj
 0002:00002904       ??_R4CProcessManager@@6B@  00419904     ProcessManager.obj
 0002:00002918       ??_R3CProcessManager@@8    00419918     ProcessManager.obj
 0002:00002928       ??_R2CProcessManager@@8    00419928     ProcessManager.obj
 0002:00002930       ??_R1A@?0A@EA@CProcessManager@@8 00419930     ProcessManager.obj
 0002:0000294c       ??_R4CProtection@@6B@      0041994c     Protection.obj
 0002:00002960       ??_R3CProtection@@8        00419960     Protection.obj
 0002:00002970       ??_R2CProtection@@8        00419970     Protection.obj
 0002:00002978       ??_R1A@?0A@EA@CProtection@@8 00419978     Protection.obj
 0002:00002994       ??_R4CQueue@@6B@           00419994     Queue.obj
 0002:000029a8       ??_R3CQueue@@8             004199a8     Queue.obj
 0002:000029b8       ??_R2CQueue@@8             004199b8     Queue.obj
 0002:000029c0       ??_R1A@?0A@EA@CQueue@@8    004199c0     Queue.obj
 0002:000029dc       ??_R4CReadFiles@@6B@       004199dc     ReadFiles.obj
 0002:000029f0       ??_R3CReadFiles@@8         004199f0     ReadFiles.obj
 0002:00002a00       ??_R2CReadFiles@@8         00419a00     ReadFiles.obj
 0002:00002a08       ??_R1A@?0A@EA@CReadFiles@@8 00419a08     ReadFiles.obj
 0002:00002a24       ??_R4CImage@ATL@@6B@       00419a24     ScreenShot.obj
 0002:00002a38       ??_R3CImage@ATL@@8         00419a38     ScreenShot.obj
 0002:00002a48       ??_R2CImage@ATL@@8         00419a48     ScreenShot.obj
 0002:00002a50       ??_R1A@?0A@EA@CImage@ATL@@8 00419a50     ScreenShot.obj
 0002:00002a6c       ??_R4SolidBrush@Gdiplus@@6B@ 00419a6c     ScreenShot.obj
 0002:00002a80       ??_R3SolidBrush@Gdiplus@@8 00419a80     ScreenShot.obj
 0002:00002a90       ??_R2SolidBrush@Gdiplus@@8 00419a90     ScreenShot.obj
 0002:00002aa0       ??_R1A@?0A@EA@SolidBrush@Gdiplus@@8 00419aa0     ScreenShot.obj
 0002:00002abc       ??_R4Image@Gdiplus@@6B@    00419abc     ScreenShot.obj
 0002:00002ad0       ??_R4Bitmap@Gdiplus@@6B@   00419ad0     ScreenShot.obj
 0002:00002ae4       ??_R3Bitmap@Gdiplus@@8     00419ae4     ScreenShot.obj
 0002:00002af4       ??_R2Bitmap@Gdiplus@@8     00419af4     ScreenShot.obj
 0002:00002b04       ??_R1A@?0A@EA@Image@Gdiplus@@8 00419b04     ScreenShot.obj
 0002:00002b20       ??_R3Image@Gdiplus@@8      00419b20     ScreenShot.obj
 0002:00002b30       ??_R2Image@Gdiplus@@8      00419b30     ScreenShot.obj
 0002:00002b3c       ??_R1A@?0A@EA@Bitmap@Gdiplus@@8 00419b3c     ScreenShot.obj
 0002:00002b58       ??_R4Brush@Gdiplus@@6B@    00419b58     ScreenShot.obj
 0002:00002b6c       ??_R3Brush@Gdiplus@@8      00419b6c     ScreenShot.obj
 0002:00002b7c       ??_R2Brush@Gdiplus@@8      00419b7c     ScreenShot.obj
 0002:00002b88       ??_R13?0A@EA@GdiplusBase@Gdiplus@@8 00419b88     ScreenShot.obj
 0002:00002ba4       ??_R3GdiplusBase@Gdiplus@@8 00419ba4     ScreenShot.obj
 0002:00002bb4       ??_R2GdiplusBase@Gdiplus@@8 00419bb4     ScreenShot.obj
 0002:00002bbc       ??_R1A@?0A@EA@GdiplusBase@Gdiplus@@8 00419bbc     ScreenShot.obj
 0002:00002bd8       ??_R1A@?0A@EA@Brush@Gdiplus@@8 00419bd8     ScreenShot.obj
 0002:00002bf4       ??_R4CScreenShow@@6B@      00419bf4     ScreenShow.obj
 0002:00002c08       ??_R3CScreenShow@@8        00419c08     ScreenShow.obj
 0002:00002c18       ??_R2CScreenShow@@8        00419c18     ScreenShow.obj
 0002:00002c20       ??_R1A@?0A@EA@CScreenShow@@8 00419c20     ScreenShow.obj
 0002:00002c3c       ??_R4CServerDisplayer@@6B@ 00419c3c     ServerDisplayer.obj
 0002:00002c50       ??_R3CServerDisplayer@@8   00419c50     ServerDisplayer.obj
 0002:00002c60       ??_R2CServerDisplayer@@8   00419c60     ServerDisplayer.obj
 0002:00002c68       ??_R1A@?0A@EA@CServerDisplayer@@8 00419c68     ServerDisplayer.obj
 0002:00002c84       ??_R4CServerInfo@@6B@      00419c84     ServerInfo.obj
 0002:00002c98       ??_R3CServerInfo@@8        00419c98     ServerInfo.obj
 0002:00002ca8       ??_R2CServerInfo@@8        00419ca8     ServerInfo.obj
 0002:00002cb0       ??_R1A@?0A@EA@CServerInfo@@8 00419cb0     ServerInfo.obj
 0002:00002ccc       ??_R4CSocketManager@@6B@   00419ccc     SocketManager.obj
 0002:00002ce0       ??_R3CSocketManager@@8     00419ce0     SocketManager.obj
 0002:00002cf0       ??_R2CSocketManager@@8     00419cf0     SocketManager.obj
 0002:00002cf8       ??_R1A@?0A@EA@CSocketManager@@8 00419cf8     SocketManager.obj
 0002:00002d20       ___safe_se_handler_table   00419d20     <linker-defined>
 0002:00002e20       ___rtc_iaa                 00419e20     MSVCRT:_initsect_.obj
 0002:00002e24       ___rtc_izz                 00419e24     MSVCRT:_initsect_.obj
 0002:00002e28       ___rtc_taa                 00419e28     MSVCRT:_initsect_.obj
 0002:00002e2c       ___rtc_tzz                 00419e2c     MSVCRT:_initsect_.obj
 0002:00002f1c       __CT??_R0?AVexception@std@@@8??0exception@std@@QAE@ABV01@@Z12 00419f1c     pugixml.obj
 0002:00002f38       __CT??_R0?AVbad_alloc@std@@@8??0bad_alloc@std@@QAE@ABV01@@Z12 00419f38     pugixml.obj
 0002:00002f54       __CTA2?AVbad_alloc@std@@   00419f54     pugixml.obj
 0002:00002f60       __TI2?AVbad_alloc@std@@    00419f60     pugixml.obj
 0002:00002f70       __CT??_R0?AVbad_cast@std@@@8??0bad_cast@std@@QAE@ABV01@@Z12 00419f70     BlackList.obj
 0002:00002f8c       __CTA2?AVbad_cast@std@@    00419f8c     BlackList.obj
 0002:00002f98       __TI2?AVbad_cast@std@@     00419f98     BlackList.obj
 0002:00002fa8       __CT??_R0H@84              00419fa8     MemScript.obj
 0002:00002fc4       __CTA1H                    00419fc4     MemScript.obj
 0002:00002fcc       __TI1H                     00419fcc     MemScript.obj
 0002:00002fdc       __CT??_R0?AVCAtlException@ATL@@@84 00419fdc     ScreenShot.obj
 0002:00002ff8       __CTA1?AVCAtlException@ATL@@ 00419ff8     ScreenShot.obj
 0002:00003000       __TI1?AVCAtlException@ATL@@ 0041a000     ScreenShot.obj
 0002:00003fb8       __IMPORT_DESCRIPTOR_KERNEL32 0041afb8     kernel32:KERNEL32.dll
 0002:00003fcc       __IMPORT_DESCRIPTOR_USER32 0041afcc     user32:USER32.dll
 0002:00003fe0       __IMPORT_DESCRIPTOR_GDI32  0041afe0     gdi32:GDI32.dll
 0002:00003ff4       __IMPORT_DESCRIPTOR_ole32  0041aff4     ole32:ole32.dll
 0002:00004008       __IMPORT_DESCRIPTOR_MSVCP100 0041b008     msvcprt:MSVCP100.dll
 0002:0000401c       __IMPORT_DESCRIPTOR_MSVCR100 0041b01c     MSVCRT:MSVCR100.dll
 0002:00004030       __IMPORT_DESCRIPTOR_SHLWAPI 0041b030     shlwapi:SHLWAPI.dll
 0002:00004044       __IMPORT_DESCRIPTOR_gdiplus 0041b044     gdiplus:gdiplus.dll
 0002:00004058       __IMPORT_DESCRIPTOR_MSIMG32 0041b058     msimg32:MSIMG32.dll
 0002:0000406c       __IMPORT_DESCRIPTOR_VMProtectSDK32 0041b06c     VMProtectSDK32:VMProtectSDK32.dll
 0002:00004080       __IMPORT_DESCRIPTOR_COMCTL32 0041b080     comctl32:COMCTL32.dll
 0002:00004094       __IMPORT_DESCRIPTOR_WS2_32 0041b094     ws2_32:WS2_32.dll
 0002:000040a8       __IMPORT_DESCRIPTOR_PSAPI  0041b0a8     Psapi:PSAPI.DLL
 0002:000040bc       __IMPORT_DESCRIPTOR_dbghelp 0041b0bc     dbghelp:dbghelp.dll
 0002:000040d0       __NULL_IMPORT_DESCRIPTOR   0041b0d0     kernel32:KERNEL32.dll
 0003:00000000       ??_R0?AVtype_info@@@8      0041e000     MSVCRT:ti_inst.obj
 0003:00000018       ___security_cookie         0041e018     MSVCRT:gs_cookie.obj
 0003:0000001c       ___security_cookie_complement 0041e01c     MSVCRT:gs_cookie.obj
 0003:00000020       ___native_dllmain_reason   0041e020     MSVCRT:natstart.obj
 0003:00000024       ___native_vcclrit_reason   0041e024     MSVCRT:natstart.obj
 0003:00000028       ___globallocalestatus      0041e028     MSVCRT:xthdloc.obj
 0003:0000002c       ___defaultmatherr          0041e02c     MSVCRT:merr.obj
 0003:00000030       ?g_strmgr@ATL@@3VCAtlStringMgr@1@A 0041e030     atls:atlstr.obj
 0003:0000004c       ??_R0?AVexception@std@@@8  0041e04c     pugixml.obj
 0003:00000068       ??_R0?AVbad_alloc@std@@@8  0041e068     pugixml.obj
 0003:00000084       ??_R0?AVCAuthenticate@@@8  0041e084     Authenticate.obj
 0003:000000a0       ??_R0?AVCBlackList@@@8     0041e0a0     BlackList.obj
 0003:000000bc       ??_R0?AV?$_Iosb@H@std@@@8  0041e0bc     BlackList.obj
 0003:000000d8       ??_R0?AVios_base@std@@@8   0041e0d8     BlackList.obj
 0003:000000f4       ??_R0?AV?$basic_ios@DU?$char_traits@D@std@@@std@@@8 0041e0f4     BlackList.obj
 0003:0000012c       ??_R0?AV?$basic_ostream@DU?$char_traits@D@std@@@std@@@8 0041e12c     BlackList.obj
 0003:00000168       ??_R0?AV?$basic_ofstream@DU?$char_traits@D@std@@@std@@@8 0041e168     BlackList.obj
 0003:000001a4       ??_R0?AV?$basic_streambuf@DU?$char_traits@D@std@@@std@@@8 0041e1a4     BlackList.obj
 0003:000001e0       ??_R0?AV?$basic_filebuf@DU?$char_traits@D@std@@@std@@@8 0041e1e0     BlackList.obj
 0003:0000021c       ??_R0?AVbad_cast@std@@@8   0041e21c     BlackList.obj
 0003:00000238       ??_R0?AVCClientManager@@@8 0041e238     ClientManager.obj
 0003:00000258       ??_R0?AV?$basic_istream@DU?$char_traits@D@std@@@std@@@8 0041e258     computerHash.obj
 0003:00000294       ??_R0?AV?$basic_iostream@DU?$char_traits@D@std@@@std@@@8 0041e294     computerHash.obj
 0003:000002d0       ??_R0?AV?$basic_stringstream@DU?$char_traits@D@std@@V?$allocator@D@2@@std@@@8 0041e2d0     computerHash.obj
 0003:00000320       ??_R0?AV?$basic_stringbuf@DU?$char_traits@D@std@@V?$allocator@D@2@@std@@@8 0041e320     computerHash.obj
 0003:00000370       ??_R0?AVCCriticalSection@@@8 0041e370     CriticalSection.obj
 0003:00000c90       ?gAuthenticate@@3VCAuthenticate@@A 0041ec90     Authenticate.obj
 0003:00004cc8       ?gBlackList@@3VCBlackList@@A 00422cc8     BlackList.obj
 0003:00004cec       ?gIpManager@@3VCIpManager@@A 00422cec     IpManager.obj
 0003:00004d00       ?gLog@@3VCLog@@A           00422d00     Log.obj
 0003:00005130       ?gReadFiles@@3VCReadFiles@@A 00423130     ReadFiles.obj
 0003:00005178       ?gServerInfo@@3VCServerInfo@@A 00423178     ServerInfo.obj
 0003:00005238       ??_R0?AVCHidManager@@@8    00423238     HidManager.obj
 0003:00005254       ??_R0?AVCIpManager@@@8     00423254     IpManager.obj
 0003:00005270       ??_R0?AVCLog@@@8           00423270     Log.obj
 0003:00005284       ??_R0?AVCMemScript@@@8     00423284     MemScript.obj
 0003:000052a0       ??_R0H@8                   004232a0     MemScript.obj
 0003:000052ac       ??_R0?AVCProcessManager@@@8 004232ac     ProcessManager.obj
 0003:000052cc       ??_R0?AVCProtection@@@8    004232cc     Protection.obj
 0003:000052e8       ??_R0?AVCQueue@@@8         004232e8     Queue.obj
 0003:00005300       ??_R0?AVCReadFiles@@@8     00423300     ReadFiles.obj
 0003:0000531c       ??_R0?AVCImage@ATL@@@8     0042331c     ScreenShot.obj
 0003:00005338       ??_R0?AVSolidBrush@Gdiplus@@@8 00423338     ScreenShot.obj
 0003:0000535c       ??_R0?AVImage@Gdiplus@@@8  0042335c     ScreenShot.obj
 0003:00005378       ??_R0?AVBitmap@Gdiplus@@@8 00423378     ScreenShot.obj
 0003:00005398       ??_R0?AVGdiplusBase@Gdiplus@@@8 00423398     ScreenShot.obj
 0003:000053bc       ??_R0?AVBrush@Gdiplus@@@8  004233bc     ScreenShot.obj
 0003:000053d8       ??_R0?AVCAtlException@ATL@@@8 004233d8     ScreenShot.obj
 0003:000053f8       ??_R0?AVCScreenShow@@@8    004233f8     ScreenShow.obj
 0003:00005414       ??_R0?AVCServerDisplayer@@@8 00423414     ServerDisplayer.obj
 0003:00005434       ??_R0?AVCServerInfo@@@8    00423434     ServerInfo.obj
 0003:00005450       ??_R0?AVCSocketManager@@@8 00423450     SocketManager.obj
 0003:000057bc       __dowildcard               004237bc     MSVCRT:wildcard.obj
 0003:000057c0       __newmode                  004237c0     MSVCRT:_newmode.obj
 0003:000057c4       __commode                  004237c4     MSVCRT:xncommod.obj
 0003:000057c8       __fmode                    004237c8     MSVCRT:xtxtmode.obj
 0003:000057cc       ?s_initGDIPlus@CImage@ATL@@0VCInitGDIPlus@12@A 004237cc     atls:atlimage2.obj
 0003:000057f0       ?s_cache@CImage@ATL@@0VCDCCache@12@A 004237f0     atls:atlimage.obj
 0003:00005800       ?g_strheap@ATL@@3VCWin32Heap@1@A 00423800     atls:atlstr.obj
 0003:0000580c       ?_AtlBaseModule@ATL@@3VCAtlBaseModule@1@A 0042380c     atls:atlbase.obj
 0003:00005844       ?_Stinit@?1??_Init@?$basic_filebuf@DU?$char_traits@D@std@@@std@@IAEXPAU_iobuf@@W4_Initfl@23@@Z@4HA 00423844     BlackList.obj
 0003:00005848       ?_Psave@?$_Facetptr@V?$codecvt@DDH@std@@@std@@2PBVfacet@locale@2@B 00423848     BlackList.obj
 0003:00005850       ?ProcessListWnd@@3PAUHWND__@@A 00423850     HackServer.obj
 0003:00005854       ?ScreenWnd@@3PAUHWND__@@A  00423854     HackServer.obj
 0003:00005858       ?hWnd@@3PAUHWND__@@A       00423858     HackServer.obj
 0003:0000585c       ?hInst@@3PAUHINSTANCE__@@A 0042385c     HackServer.obj
 0003:00005860       ?szChildClass@@3PADA       00423860     HackServer.obj
 0003:000058c4       ___@@_PchSym_@00@UuobnfUuobnfUnskLgllohUhlfixvUszxphvieviUszxphvieviUszxphvieviUivovzhvUhgwzucOlyq@ 004238c4     stdafx.obj
 0003:000058c8       ?szChildTitle@@3PADA       004238c8     HackServer.obj
 0003:00005930       ?szWindowClass@@3PADA      00423930     HackServer.obj
 0003:00005998       ?szTitle@@3PADA            00423998     HackServer.obj
 0003:000059fc       ?_httpErrorCode@@3HA       004239fc     FileDownloadHTTP.obj
 0003:00005a00       ?PreviousExceptionFilter@@3P6GJPAU_EXCEPTION_POINTERS@@@ZA 00423a00     MiniDump.obj
 0003:00005a2c       ?gClientCount@@3HA         00423a2c     Util.obj
 0003:00005a30       ?gClientManager@@3PAVCClientManager@@A 00423a30     ClientManager.obj
 0003:00089790       ?gHelperPlayers@@3VCHelperPlayers@@A 004a7790     HelperPlayers.obj
 0003:00089794       ?gHidManager@@3VCHidManager@@A 004a7794     HidManager.obj
 0003:000897d0       ?gProcessListInfo@@3VCProcessListInfo@@A 004a77d0     ProcessListInfo.obj
 0003:00089814       ?gProcessManager@@3VCProcessManager@@A 004a7814     ProcessManager.obj
 0003:00089848       ?gProtection@@3VCProtection@@A 004a7848     Protection.obj
 0003:00089a20       ?gScreenShot@@3VCScreenShot@@A 004a7a20     ScreenShot.obj
 0003:00089a48       ?gScreenShow@@3VCScreenShow@@A 004a7a48     ScreenShow.obj
 0003:00089ab0       ?gServerDisplayer@@3VCServerDisplayer@@A 004a7ab0     ServerDisplayer.obj
 0003:0008a528       ?gSocketManager@@3VCSocketManager@@A 004a8528     SocketManager.obj
 0003:0008a5c8       ?m_bInitFailed@CAtlBaseModule@ATL@@2_NA 004a85c8     stdafx.obj
 0003:0018a5e0       ___sse2_available          005a85e0     <common>
 0003:0018a5e4       ___native_startup_state    005a85e4     <common>
 0003:0018a5e8       ___native_startup_lock     005a85e8     <common>
 0003:0018a5ec       __NoHeapEnableTerminationOnCorruption 005a85ec     <common>
 0003:0018a5f0       ___dyn_tls_init_callback   005a85f0     <common>
 0003:0018a5f4       ___onexitend               005a85f4     <common>
 0003:0018a5f8       ___onexitbegin             005a85f8     <common>

 entry point at        0001:0001359e

 Static symbols

 0001:000003b3       __catch$?_Copy@?$basic_string@DU?$char_traits@D@std@@V?$allocator@D@2@@std@@QAEXII@Z$0 004013b3 f i  CIL library: CIL module
 0001:00000437       __catch$?_Copy@?$basic_string@DU?$char_traits@D@std@@V?$allocator@D@2@@std@@QAEXII@Z$1 00401437 f i  CIL library: CIL module
 0001:0000073b       __catch$?SetList@CBlackList@@QAEXPAD@Z$0 0040173b f    CIL library: CIL module
 0001:00001d67       __catch$?reserve@?$vector@UBLACKLIST_IPADDR_INFO@@V?$allocator@UBLACKLIST_IPADDR_INFO@@@std@@@std@@QAEXI@Z$0 00402d67 f i  CIL library: CIL module
 0001:00001e51       __catch$?reserve@?$vector@UBLACKLIST_HARDID_INFO@@V?$allocator@UBLACKLIST_HARDID_INFO@@@std@@@std@@QAEXI@Z$0 00402e51 f i  CIL library: CIL module
 0001:00002154       __catch$??$?6U?$char_traits@D@std@@@std@@YAAAV?$basic_ostream@DU?$char_traits@D@std@@@0@AAV10@PBD@Z$0 00403154 f i  CIL library: CIL module
 0001:00006b61       __catch$?reserve@?$vector@UHARDWARE_ID_INFO@@V?$allocator@UHARDWARE_ID_INFO@@@std@@@std@@QAEXI@Z$0 00407b61 f i  CIL library: CIL module
 0001:0000741f       __catch$??$_Buynode@U?$pair@$$CBV?$basic_string@DU?$char_traits@D@std@@V?$allocator@D@2@@std@@H@std@@@?$_Tree_val@V?$_Tmap_traits@V?$basic_string@DU?$char_traits@D@std@@V?$allocator@D@2@@std@@HU?$less@V?$basic_string@DU?$char_traits@D@std@@V?$allocator@D@2@@std@@@2@V?$allocator@U?$pair@$$CBV?$basic_string@DU?$char_traits@D@std@@V?$allocator@D@2@@std@@H@std@@@2@$0A@@std@@@std@@QAEPAU_Node@?$_Tree_nod@V?$_Tmap_traits@V?$basic_string@DU?$char_traits@D@std@@V?$allocator@D@2@@std@@HU?$less@V?$basic_string@DU?$char_traits@D@std@@V?$allocator@D@2@@std@@@2@V?$allocator@U?$pair@$$CBV?$basic_string@DU?$char_traits@D@std@@V?$allocator@D@2@@std@@H@std@@@2@$0A@@std@@@1@$$QAU?$pair@$$CBV?$basic_string@DU?$char_traits@D@std@@V?$allocator@D@2@@std@@H@1@@Z$0 0040841f f i  CIL library: CIL module
 0001:000083fd       __catch$??$_Buynode@U?$pair@V?$basic_string@DU?$char_traits@D@std@@V?$allocator@D@2@@std@@UIP_ADDRESS_INFO@@@std@@@?$_Tree_val@V?$_Tmap_traits@V?$basic_string@DU?$char_traits@D@std@@V?$allocator@D@2@@std@@UIP_ADDRESS_INFO@@U?$less@V?$basic_string@DU?$char_traits@D@std@@V?$allocator@D@2@@std@@@2@V?$allocator@U?$pair@$$CBV?$basic_string@DU?$char_traits@D@std@@V?$allocator@D@2@@std@@UIP_ADDRESS_INFO@@@std@@@2@$0A@@std@@@std@@QAEPAU_Node@?$_Tree_nod@V?$_Tmap_traits@V?$basic_string@DU?$char_traits@D@std@@V?$allocator@D@2@@std@@UIP_ADDRESS_INFO@@U?$less@V?$basic_string@DU?$char_traits@D@std@@V?$allocator@D@2@@std@@@2@V?$allocator@U?$pair@$$CBV?$basic_string@DU?$char_traits@D@std@@V?$allocator@D@2@@std@@UIP_ADDRESS_INFO@@@std@@@2@$0A@@std@@@1@$$QAU?$pair@V?$basic_string@DU?$char_traits@D@std@@V?$allocator@D@2@@std@@UIP_ADDRESS_INFO@@@1@@Z$0 004093fd f i  CIL library: CIL module
 0001:000099bb       __catch$?reserve@?$vector@UPROCESS_INFO_DATA@@V?$allocator@UPROCESS_INFO_DATA@@@std@@@std@@QAEXI@Z$0 0040a9bb f i  CIL library: CIL module
 0001:0000be2f       __catch$?DumpList@CReadFiles@@QAEXPAD@Z$0 0040ce2f f    CIL library: CIL module
 0001:0000bfa4       __catch$?ChecksumList@CReadFiles@@QAEXPAD@Z$0 0040cfa4 f    CIL library: CIL module
 0001:0000c1bf       __catch$?InternalList@CReadFiles@@QAEXPAD@Z$0 0040d1bf f    CIL library: CIL module
 0001:0000c312       __catch$?WindowList@CReadFiles@@QAEXPAD@Z$0 0040d312 f    CIL library: CIL module
 0001:0000ca31       __catch$?reserve@?$vector@UDUMP_LIST_INFO@@V?$allocator@UDUMP_LIST_INFO@@@std@@@std@@QAEXI@Z$0 0040da31 f i  CIL library: CIL module
 0001:0000cb25       __catch$?reserve@?$vector@UCSUM_LIST_INFO@@V?$allocator@UCSUM_LIST_INFO@@@std@@@std@@QAEXI@Z$0 0040db25 f i  CIL library: CIL module
 0001:0000cc15       __catch$?reserve@?$vector@UITRN_LIST_INFO@@V?$allocator@UITRN_LIST_INFO@@@std@@@std@@QAEXI@Z$0 0040dc15 f i  CIL library: CIL module
 0001:0000cd07       __catch$?reserve@?$vector@UWNDW_LIST_INFO@@V?$allocator@UWNDW_LIST_INFO@@@std@@@std@@QAEXI@Z$0 0040dd07 f i  CIL library: CIL module
 0001:00012d82       __catch$?reserve@?$vector@V?$basic_string@DU?$char_traits@D@std@@V?$allocator@D@2@@std@@V?$allocator@V?$basic_string@DU?$char_traits@D@std@@V?$allocator@D@2@@std@@@2@@std@@QAEXI@Z$0 00413d82 f i  CIL library: CIL module
 0001:000132c0       _pre_cpp_init              004142c0 f   MSVCRT:crtexew.obj
 0001:0001330b       ___tmainCRTStartup         0041430b f   MSVCRT:crtexew.obj
 0001:000134e4       _pre_c_init                004144e4 f   MSVCRT:crtexew.obj
 0001:00013f40       __unwindfunclet$??1_Fac_tidy_reg_t@std@@QAE@XZ$0 00414f40 f   msvcprt:locale0_implib.obj
 0001:00013f49       __ehhandler$??1_Fac_tidy_reg_t@std@@QAE@XZ 00414f49 f   msvcprt:locale0_implib.obj
 0001:00013f70       __unwindfunclet$??$use_facet@V?$codecvt@DDH@std@@@std@@YAABV?$codecvt@DDH@0@ABVlocale@0@@Z$0 00414f70 f    CIL library: CIL module
 0001:00013f79       __ehhandler$??$use_facet@V?$codecvt@DDH@std@@@std@@YAABV?$codecvt@DDH@0@ABVlocale@0@@Z 00414f79 f    CIL library: CIL module
 0001:00013fa0       __unwindfunclet$?open@?$basic_filebuf@DU?$char_traits@D@std@@@std@@QAEPAV12@PBDHH@Z$0 00414fa0 f    CIL library: CIL module
 0001:00013fa8       __ehhandler$?open@?$basic_filebuf@DU?$char_traits@D@std@@@std@@QAEPAV12@PBDHH@Z 00414fa8 f    CIL library: CIL module
 0001:00013fd0       __ehhandler$?reserve@?$vector@UWNDW_LIST_INFO@@V?$allocator@UWNDW_LIST_INFO@@@std@@@std@@QAEXI@Z 00414fd0 f    CIL library: CIL module
 0001:00013ff0       __ehhandler$?reserve@?$vector@UITRN_LIST_INFO@@V?$allocator@UITRN_LIST_INFO@@@std@@@std@@QAEXI@Z 00414ff0 f    CIL library: CIL module
 0001:00014010       __ehhandler$?reserve@?$vector@UCSUM_LIST_INFO@@V?$allocator@UCSUM_LIST_INFO@@@std@@@std@@QAEXI@Z 00415010 f    CIL library: CIL module
 0001:00014030       __ehhandler$?reserve@?$vector@UDUMP_LIST_INFO@@V?$allocator@UDUMP_LIST_INFO@@@std@@@std@@QAEXI@Z 00415030 f    CIL library: CIL module
 0001:00014050       __ehhandler$?reserve@?$vector@UPROCESS_INFO_DATA@@V?$allocator@UPROCESS_INFO_DATA@@@std@@@std@@QAEXI@Z 00415050 f    CIL library: CIL module
 0001:00014070       __ehhandler$?reserve@?$vector@UHARDWARE_ID_INFO@@V?$allocator@UHARDWARE_ID_INFO@@@std@@@std@@QAEXI@Z 00415070 f    CIL library: CIL module
 0001:00014090       __unwindfunclet$??_D?$basic_stringstream@DU?$char_traits@D@std@@V?$allocator@D@2@@std@@QAEXXZ$0 00415090 f    CIL library: CIL module
 0001:0001409c       __ehhandler$??_D?$basic_stringstream@DU?$char_traits@D@std@@V?$allocator@D@2@@std@@QAEXXZ 0041509c f    CIL library: CIL module
 0001:000140c0       __unwindfunclet$??1sentry@?$basic_ostream@DU?$char_traits@D@std@@@std@@QAE@XZ$0 004150c0 f    CIL library: CIL module
 0001:000140c8       __ehhandler$??1sentry@?$basic_ostream@DU?$char_traits@D@std@@@std@@QAE@XZ 004150c8 f    CIL library: CIL module
 0001:000140f0       __unwindfunclet$??$?6U?$char_traits@D@std@@@std@@YAAAV?$basic_ostream@DU?$char_traits@D@std@@@0@AAV10@PBD@Z$3 004150f0 f    CIL library: CIL module
 0001:000140f8       __unwindfunclet$??$?6U?$char_traits@D@std@@@std@@YAAAV?$basic_ostream@DU?$char_traits@D@std@@@0@AAV10@PBD@Z$2 004150f8 f    CIL library: CIL module
 0001:00014102       __unwindfunclet$??$?6U?$char_traits@D@std@@@std@@YAAAV?$basic_ostream@DU?$char_traits@D@std@@@0@AAV10@PBD@Z$4 00415102 f    CIL library: CIL module
 0001:0001410a       __ehhandler$??$?6U?$char_traits@D@std@@@std@@YAAAV?$basic_ostream@DU?$char_traits@D@std@@@0@AAV10@PBD@Z 0041510a f    CIL library: CIL module
 0001:00014130       __ehhandler$?reserve@?$vector@UBLACKLIST_HARDID_INFO@@V?$allocator@UBLACKLIST_HARDID_INFO@@@std@@@std@@QAEXI@Z 00415130 f    CIL library: CIL module
 0001:00014150       __ehhandler$?reserve@?$vector@UBLACKLIST_IPADDR_INFO@@V?$allocator@UBLACKLIST_IPADDR_INFO@@@std@@@std@@QAEXI@Z 00415150 f    CIL library: CIL module
 0001:00014170       __unwindfunclet$?ClearQueue@CQueue@@QAEXXZ$3 00415170 f    CIL library: CIL module
 0001:00014179       __unwindfunclet$?ClearQueue@CQueue@@QAEXXZ$0 00415179 f    CIL library: CIL module
 0001:00014181       __ehhandler$?ClearQueue@CQueue@@QAEXXZ 00415181 f    CIL library: CIL module
 0001:000141a0       __unwindfunclet$??1CQueue@@UAE@XZ$0 004151a0 f    CIL library: CIL module
 0001:000141ab       __unwindfunclet$??1CQueue@@UAE@XZ$1 004151ab f    CIL library: CIL module
 0001:000141b6       __ehhandler$??1CQueue@@UAE@XZ 004151b6 f    CIL library: CIL module
 0001:000141e0       __unwindfunclet$??_GCQueue@@UAEPAXI@Z$0 004151e0 f    CIL library: CIL module
 0001:000141eb       __unwindfunclet$??_GCQueue@@UAEPAXI@Z$1 004151eb f    CIL library: CIL module
 0001:000141f6       __ehhandler$??_GCQueue@@UAEPAXI@Z 004151f6 f    CIL library: CIL module
 0001:00014220       __unwindfunclet$??_G?$basic_stringstream@DU?$char_traits@D@std@@V?$allocator@D@2@@std@@UAEPAXI@Z$0 00415220 f    CIL library: CIL module
 0001:0001422c       __ehhandler$??_G?$basic_stringstream@DU?$char_traits@D@std@@V?$allocator@D@2@@std@@UAEPAXI@Z 0041522c f    CIL library: CIL module
 0001:00014250       __unwindfunclet$??0?$basic_stringstream@DU?$char_traits@D@std@@V?$allocator@D@2@@std@@QAE@H@Z$0 00415250 f    CIL library: CIL module
 0001:0001426d       __unwindfunclet$??0?$basic_stringstream@DU?$char_traits@D@std@@V?$allocator@D@2@@std@@QAE@H@Z$1 0041526d f    CIL library: CIL module
 0001:00014279       __unwindfunclet$??0?$basic_stringstream@DU?$char_traits@D@std@@V?$allocator@D@2@@std@@QAE@H@Z$3 00415279 f    CIL library: CIL module
 0001:00014282       __ehhandler$??0?$basic_stringstream@DU?$char_traits@D@std@@V?$allocator@D@2@@std@@QAE@H@Z 00415282 f    CIL library: CIL module
 0001:000142a0       __ehhandler$?SetList@CBlackList@@QAEXPAD@Z 004152a0 f    CIL library: CIL module
 0001:000142d0       __ehhandler$?_Copy@?$basic_string@DU?$char_traits@D@std@@V?$allocator@D@2@@std@@QAEXII@Z 004152d0 f    CIL library: CIL module
 0001:000142f0       __unwindfunclet$??1CSocketManager@@UAE@XZ$0 004152f0 f    CIL library: CIL module
 0001:000142fb       __unwindfunclet$??1CSocketManager@@UAE@XZ$1 004152fb f    CIL library: CIL module
 0001:00014306       __unwindfunclet$??1CSocketManager@@UAE@XZ$2 00415306 f    CIL library: CIL module
 0001:00014311       __unwindfunclet$??1CSocketManager@@UAE@XZ$3 00415311 f    CIL library: CIL module
 0001:0001431c       __ehhandler$??1CSocketManager@@UAE@XZ 0041531c f    CIL library: CIL module
 0001:00014340       __unwindfunclet$??0CSocketManager@@QAE@XZ$2 00415340 f    CIL library: CIL module
 0001:0001434b       __unwindfunclet$??0CSocketManager@@QAE@XZ$6 0041534b f    CIL library: CIL module
 0001:00014354       __ehhandler$??0CSocketManager@@QAE@XZ 00415354 f    CIL library: CIL module
 0001:00014370       __ehhandler$?WindowList@CReadFiles@@QAEXPAD@Z 00415370 f    CIL library: CIL module
 0001:000143a0       __ehhandler$?InternalList@CReadFiles@@QAEXPAD@Z 004153a0 f    CIL library: CIL module
 0001:000143d0       __ehhandler$?ChecksumList@CReadFiles@@QAEXPAD@Z 004153d0 f    CIL library: CIL module
 0001:00014400       __ehhandler$?DumpList@CReadFiles@@QAEXPAD@Z 00415400 f    CIL library: CIL module
 0001:00014430       __unwindfunclet$??1?$map@H_NU?$less@H@std@@V?$allocator@U?$pair@$$CBH_N@std@@@2@@std@@QAE@XZ$1 00415430 f    CIL library: CIL module
 0001:00014438       __ehhandler$??1?$map@H_NU?$less@H@std@@V?$allocator@U?$pair@$$CBH_N@std@@@2@@std@@QAE@XZ 00415438 f    CIL library: CIL module
 0001:00014460       __unwindfunclet$??0CProtection@@QAE@XZ$0 00415460 f    CIL library: CIL module
 0001:0001446f       __ehhandler$??0CProtection@@QAE@XZ 0041546f f    CIL library: CIL module
 0001:00014490       __unwindfunclet$??0CProcessManager@@QAE@XZ$0 00415490 f    CIL library: CIL module
 0001:0001449b       __ehhandler$??0CProcessManager@@QAE@XZ 0041549b f    CIL library: CIL module
 0001:000144c0       __unwindfunclet$??$_Buynode@U?$pair@V?$basic_string@DU?$char_traits@D@std@@V?$allocator@D@2@@std@@UIP_ADDRESS_INFO@@@std@@@?$_Tree_val@V?$_Tmap_traits@V?$basic_string@DU?$char_traits@D@std@@V?$allocator@D@2@@std@@UIP_ADDRESS_INFO@@U?$less@V?$basic_string@DU?$char_traits@D@std@@V?$allocator@D@2@@std@@@2@V?$allocator@U?$pair@$$CBV?$basic_string@DU?$char_traits@D@std@@V?$allocator@D@2@@std@@UIP_ADDRESS_INFO@@@std@@@2@$0A@@std@@@std@@QAEPAU_Node@?$_Tree_nod@V?$_Tmap_traits@V?$basic_string@DU?$char_traits@D@std@@V?$allocator@D@2@@std@@UIP_ADDRESS_INFO@@U?$less@V?$basic_string@DU?$char_traits@D@std@@V?$allocator@D@2@@std@@@2@V?$allocator@U?$pair@$$CBV?$basic_string@DU?$char_traits@D@std@@V?$allocator@D@2@@std@@UIP_ADDRESS_INFO@@@std@@@2@$0A@@std@@@1@$$QAU?$pair@V?$basic_string@DU?$char_traits@D@std@@V?$allocator@D@2@@std@@UIP_ADDRESS_INFO@@@1@@Z$2 004154c0 f    CIL library: CIL module
 0001:000144c5       __ehhandler$??$_Buynode@U?$pair@V?$basic_string@DU?$char_traits@D@std@@V?$allocator@D@2@@std@@UIP_ADDRESS_INFO@@@std@@@?$_Tree_val@V?$_Tmap_traits@V?$basic_string@DU?$char_traits@D@std@@V?$allocator@D@2@@std@@UIP_ADDRESS_INFO@@U?$less@V?$basic_string@DU?$char_traits@D@std@@V?$allocator@D@2@@std@@@2@V?$allocator@U?$pair@$$CBV?$basic_string@DU?$char_traits@D@std@@V?$allocator@D@2@@std@@UIP_ADDRESS_INFO@@@std@@@2@$0A@@std@@@std@@QAEPAU_Node@?$_Tree_nod@V?$_Tmap_traits@V?$basic_string@DU?$char_traits@D@std@@V?$allocator@D@2@@std@@UIP_ADDRESS_INFO@@U?$less@V?$basic_string@DU?$char_traits@D@std@@V?$allocator@D@2@@std@@@2@V?$allocator@U?$pair@$$CBV?$basic_string@DU?$char_traits@D@std@@V?$allocator@D@2@@std@@UIP_ADDRESS_INFO@@@std@@@2@$0A@@std@@@1@$$QAU?$pair@V?$basic_string@DU?$char_traits@D@std@@V?$allocator@D@2@@std@@UIP_ADDRESS_INFO@@@1@@Z 004154c5 f    CIL library: CIL module
 0001:000144e0       __unwindfunclet$??$_Buynode@U?$pair@$$CBV?$basic_string@DU?$char_traits@D@std@@V?$allocator@D@2@@std@@H@std@@@?$_Tree_val@V?$_Tmap_traits@V?$basic_string@DU?$char_traits@D@std@@V?$allocator@D@2@@std@@HU?$less@V?$basic_string@DU?$char_traits@D@std@@V?$allocator@D@2@@std@@@2@V?$allocator@U?$pair@$$CBV?$basic_string@DU?$char_traits@D@std@@V?$allocator@D@2@@std@@H@std@@@2@$0A@@std@@@std@@QAEPAU_Node@?$_Tree_nod@V?$_Tmap_traits@V?$basic_string@DU?$char_traits@D@std@@V?$allocator@D@2@@std@@HU?$less@V?$basic_string@DU?$char_traits@D@std@@V?$allocator@D@2@@std@@@2@V?$allocator@U?$pair@$$CBV?$basic_string@DU?$char_traits@D@std@@V?$allocator@D@2@@std@@H@std@@@2@$0A@@std@@@1@$$QAU?$pair@$$CBV?$basic_string@DU?$char_traits@D@std@@V?$allocator@D@2@@std@@H@1@@Z$2 004154e0 f    CIL library: CIL module
 0001:000144e5       __ehhandler$??$_Buynode@U?$pair@$$CBV?$basic_string@DU?$char_traits@D@std@@V?$allocator@D@2@@std@@H@std@@@?$_Tree_val@V?$_Tmap_traits@V?$basic_string@DU?$char_traits@D@std@@V?$allocator@D@2@@std@@HU?$less@V?$basic_string@DU?$char_traits@D@std@@V?$allocator@D@2@@std@@@2@V?$allocator@U?$pair@$$CBV?$basic_string@DU?$char_traits@D@std@@V?$allocator@D@2@@std@@H@std@@@2@$0A@@std@@@std@@QAEPAU_Node@?$_Tree_nod@V?$_Tmap_traits@V?$basic_string@DU?$char_traits@D@std@@V?$allocator@D@2@@std@@HU?$less@V?$basic_string@DU?$char_traits@D@std@@V?$allocator@D@2@@std@@@2@V?$allocator@U?$pair@$$CBV?$basic_string@DU?$char_traits@D@std@@V?$allocator@D@2@@std@@H@std@@@2@$0A@@std@@@1@$$QAU?$pair@$$CBV?$basic_string@DU?$char_traits@D@std@@V?$allocator@D@2@@std@@H@1@@Z 004154e5 f    CIL library: CIL module
 0001:00014500       __unwindfunclet$??$_Uninit_move@PAV?$basic_string@DU?$char_traits@D@std@@V?$allocator@D@2@@std@@PAV12@V?$allocator@V?$basic_string@DU?$char_traits@D@std@@V?$allocator@D@2@@std@@@2@V12@@std@@YAPAV?$basic_string@DU?$char_traits@D@std@@V?$allocator@D@2@@0@PAV10@00AAV?$allocator@V?$basic_string@DU?$char_traits@D@std@@V?$allocator@D@2@@std@@@0@0U_Nonscalar_ptr_iterator_tag@0@@Z$2 00415500 f    CIL library: CIL module
 0001:00014505       __ehhandler$??$_Uninit_move@PAV?$basic_string@DU?$char_traits@D@std@@V?$allocator@D@2@@std@@PAV12@V?$allocator@V?$basic_string@DU?$char_traits@D@std@@V?$allocator@D@2@@std@@@2@V12@@std@@YAPAV?$basic_string@DU?$char_traits@D@std@@V?$allocator@D@2@@0@PAV10@00AAV?$allocator@V?$basic_string@DU?$char_traits@D@std@@V?$allocator@D@2@@std@@@0@0U_Nonscalar_ptr_iterator_tag@0@@Z 00415505 f    CIL library: CIL module
 0001:00014520       __ehhandler$?reserve@?$vector@V?$basic_string@DU?$char_traits@D@std@@V?$allocator@D@2@@std@@V?$allocator@V?$basic_string@DU?$char_traits@D@std@@V?$allocator@D@2@@std@@@2@@std@@QAEXI@Z 00415520 f    CIL library: CIL module
 0001:00014540       __unwindfunclet$?push_back@?$vector@V?$basic_string@DU?$char_traits@D@std@@V?$allocator@D@2@@std@@V?$allocator@V?$basic_string@DU?$char_traits@D@std@@V?$allocator@D@2@@std@@@2@@std@@QAEX$$QAV?$basic_string@DU?$char_traits@D@std@@V?$allocator@D@2@@2@@Z$0 00415540 f    CIL library: CIL module
 0001:00014545       __unwindfunclet$?push_back@?$vector@V?$basic_string@DU?$char_traits@D@std@@V?$allocator@D@2@@std@@V?$allocator@V?$basic_string@DU?$char_traits@D@std@@V?$allocator@D@2@@std@@@2@@std@@QAEX$$QAV?$basic_string@DU?$char_traits@D@std@@V?$allocator@D@2@@2@@Z$1 00415545 f    CIL library: CIL module
 0001:0001454a       __ehhandler$?push_back@?$vector@V?$basic_string@DU?$char_traits@D@std@@V?$allocator@D@2@@std@@V?$allocator@V?$basic_string@DU?$char_traits@D@std@@V?$allocator@D@2@@std@@@2@@std@@QAEX$$QAV?$basic_string@DU?$char_traits@D@std@@V?$allocator@D@2@@2@@Z 0041554a f    CIL library: CIL module
 0001:00014570       __unwindfunclet$??_GCIpManager@@UAEPAXI@Z$2 00415570 f    CIL library: CIL module
 0001:00014570       __unwindfunclet$??_GCProtection@@UAEPAXI@Z$2 00415570 f    CIL library: CIL module
 0001:00014578       __ehhandler$??_GCIpManager@@UAEPAXI@Z 00415578 f    CIL library: CIL module
 0001:00014578       __ehhandler$??_GCProtection@@UAEPAXI@Z 00415578 f    CIL library: CIL module
 0001:000145a0       __unwindfunclet$??_GCProcessManager@@UAEPAXI@Z$0 004155a0 f    CIL library: CIL module
 0001:000145ab       __unwindfunclet$??_GCProcessManager@@UAEPAXI@Z$3 004155ab f    CIL library: CIL module
 0001:000145b3       __ehhandler$??_GCProcessManager@@UAEPAXI@Z 004155b3 f    CIL library: CIL module
 0001:000145d0       __unwindfunclet$?InsertIpAddress@CIpManager@@QAEXPAD@Z$0 004155d0 f    CIL library: CIL module
 0001:000145d8       __unwindfunclet$?InsertIpAddress@CIpManager@@QAEXPAD@Z$1 004155d8 f    CIL library: CIL module
 0001:000145e3       __unwindfunclet$?InsertIpAddress@CIpManager@@QAEXPAD@Z$2 004155e3 f    CIL library: CIL module
 0001:000145eb       __ehhandler$?InsertIpAddress@CIpManager@@QAEXPAD@Z 004155eb f    CIL library: CIL module
 0001:00014620       __unwindfunclet$??A?$map@V?$basic_string@DU?$char_traits@D@std@@V?$allocator@D@2@@std@@HU?$less@V?$basic_string@DU?$char_traits@D@std@@V?$allocator@D@2@@std@@@2@V?$allocator@U?$pair@$$CBV?$basic_string@DU?$char_traits@D@std@@V?$allocator@D@2@@std@@H@std@@@2@@std@@QAEAAHABV?$basic_string@DU?$char_traits@D@std@@V?$allocator@D@2@@1@@Z$0 00415620 f    CIL library: CIL module
 0001:00014628       __ehhandler$??A?$map@V?$basic_string@DU?$char_traits@D@std@@V?$allocator@D@2@@std@@HU?$less@V?$basic_string@DU?$char_traits@D@std@@V?$allocator@D@2@@std@@@2@V?$allocator@U?$pair@$$CBV?$basic_string@DU?$char_traits@D@std@@V?$allocator@D@2@@std@@H@std@@@2@@std@@QAEAAHABV?$basic_string@DU?$char_traits@D@std@@V?$allocator@D@2@@1@@Z 00415628 f    CIL library: CIL module
 0001:00014650       __unwindfunclet$?IncrementHwidCount@CHidManager@@QAEXPAD@Z$0 00415650 f    CIL library: CIL module
 0001:00014658       __ehhandler$?IncrementHwidCount@CHidManager@@QAEXPAD@Z 00415658 f    CIL library: CIL module
 0001:00014680       __unwindfunclet$?CheckHwidConnectionLimit@CHidManager@@QAE_NPAD@Z$0 00415680 f    CIL library: CIL module
 0001:00014688       __ehhandler$?CheckHwidConnectionLimit@CHidManager@@QAE_NPAD@Z 00415688 f    CIL library: CIL module
 0001:000146b0       __unwindfunclet$??0CHidManager@@QAE@XZ$0 004156b0 f    CIL library: CIL module
 0001:000146bb       __ehhandler$??0CHidManager@@QAE@XZ 004156bb f    CIL library: CIL module
 0001:000146e0       __unwindfunclet$?str@?$basic_stringbuf@DU?$char_traits@D@std@@V?$allocator@D@2@@std@@QBE?AV?$basic_string@DU?$char_traits@D@std@@V?$allocator@D@2@@2@XZ$0 004156e0 f    CIL library: CIL module
 0001:000146e8       __unwindfunclet$?str@?$basic_stringbuf@DU?$char_traits@D@std@@V?$allocator@D@2@@std@@QBE?AV?$basic_string@DU?$char_traits@D@std@@V?$allocator@D@2@@2@XZ$2 004156e8 f    CIL library: CIL module
 0001:000146f0       __unwindfunclet$?str@?$basic_stringbuf@DU?$char_traits@D@std@@V?$allocator@D@2@@std@@QBE?AV?$basic_string@DU?$char_traits@D@std@@V?$allocator@D@2@@2@XZ$3 004156f0 f    CIL library: CIL module
 0001:000146f8       __ehhandler$?str@?$basic_stringbuf@DU?$char_traits@D@std@@V?$allocator@D@2@@std@@QBE?AV?$basic_string@DU?$char_traits@D@std@@V?$allocator@D@2@@2@XZ 004156f8 f    CIL library: CIL module
 0001:00014720       __unwindfunclet$?DecrementHwidCount@CHidManager@@QAEXPAD@Z$0 00415720 f    CIL library: CIL module
 0001:00014720       __unwindfunclet$?RemoveIpAddress@CIpManager@@QAEXPAD@Z$0 00415720 f    CIL library: CIL module
 0001:00014720       __unwindfunclet$?_Endwrite@?$basic_filebuf@DU?$char_traits@D@std@@@std@@IAE_NXZ$0 00415720 f    CIL library: CIL module
 0001:00014720       __unwindfunclet$?CheckIpAddress@CIpManager@@QAE_NPAD@Z$0 00415720 f    CIL library: CIL module
 0001:00014728       __ehhandler$?RemoveIpAddress@CIpManager@@QAEXPAD@Z 00415728 f    CIL library: CIL module
 0001:00014728       __ehhandler$?_Endwrite@?$basic_filebuf@DU?$char_traits@D@std@@@std@@IAE_NXZ 00415728 f    CIL library: CIL module
 0001:00014728       __ehhandler$?CheckIpAddress@CIpManager@@QAE_NPAD@Z 00415728 f    CIL library: CIL module
 0001:00014728       __ehhandler$?DecrementHwidCount@CHidManager@@QAEXPAD@Z 00415728 f    CIL library: CIL module
 0001:00014750       __unwindfunclet$?overflow@?$basic_filebuf@DU?$char_traits@D@std@@@std@@MAEHH@Z$0 00415750 f    CIL library: CIL module
 0001:00014750       __unwindfunclet$?uflow@?$basic_filebuf@DU?$char_traits@D@std@@@std@@MAEHXZ$0 00415750 f    CIL library: CIL module
 0001:00014758       __ehhandler$?overflow@?$basic_filebuf@DU?$char_traits@D@std@@@std@@MAEHH@Z 00415758 f    CIL library: CIL module
 0001:00014758       __ehhandler$?uflow@?$basic_filebuf@DU?$char_traits@D@std@@@std@@MAEHXZ 00415758 f    CIL library: CIL module
 0001:00014780       __unwindfunclet$??1?$basic_filebuf@DU?$char_traits@D@std@@@std@@UAE@XZ$0 00415780 f    CIL library: CIL module
 0001:00014789       __ehhandler$??1?$basic_filebuf@DU?$char_traits@D@std@@@std@@UAE@XZ 00415789 f    CIL library: CIL module
 0001:000147b0       __unwindfunclet$??0?$basic_ofstream@DU?$char_traits@D@std@@@std@@QAE@XZ$0 004157b0 f    CIL library: CIL module
 0001:000147cd       __unwindfunclet$??0?$basic_ofstream@DU?$char_traits@D@std@@@std@@QAE@XZ$1 004157cd f    CIL library: CIL module
 0001:000147d9       __unwindfunclet$??0?$basic_ofstream@DU?$char_traits@D@std@@@std@@QAE@XZ$3 004157d9 f    CIL library: CIL module
 0001:000147e2       __ehhandler$??0?$basic_ofstream@DU?$char_traits@D@std@@@std@@QAE@XZ 004157e2 f    CIL library: CIL module
 0001:00014800       __unwindfunclet$??_D?$basic_ofstream@DU?$char_traits@D@std@@@std@@QAEXXZ$0 00415800 f    CIL library: CIL module
 0001:0001480c       __ehhandler$??_D?$basic_ofstream@DU?$char_traits@D@std@@@std@@QAEXXZ 0041580c f    CIL library: CIL module
 0001:00014830       __unwindfunclet$?WriteNewBlackList@CBlackList@@QAEXPAD@Z$0 00415830 f    CIL library: CIL module
 0001:0001483b       __unwindfunclet$?WriteNewBlackList@CBlackList@@QAEXPAD@Z$1 0041583b f    CIL library: CIL module
 0001:0001484a       __unwindfunclet$?WriteNewBlackList@CBlackList@@QAEXPAD@Z$3 0041584a f    CIL library: CIL module
 0001:00014856       __ehhandler$?WriteNewBlackList@CBlackList@@QAEXPAD@Z 00415856 f    CIL library: CIL module
 0001:00014890       __unwindfunclet$?split@@YA?AV?$vector@V?$basic_string@DU?$char_traits@D@std@@V?$allocator@D@2@@std@@V?$allocator@V?$basic_string@DU?$char_traits@D@std@@V?$allocator@D@2@@std@@@2@@std@@ABV?$basic_string@DU?$char_traits@D@std@@V?$allocator@D@2@@2@D@Z$0 00415890 f    CIL library: CIL module
 0001:000148a9       __unwindfunclet$?split@@YA?AV?$vector@V?$basic_string@DU?$char_traits@D@std@@V?$allocator@D@2@@std@@V?$allocator@V?$basic_string@DU?$char_traits@D@std@@V?$allocator@D@2@@std@@@2@@std@@ABV?$basic_string@DU?$char_traits@D@std@@V?$allocator@D@2@@2@D@Z$2 004158a9 f    CIL library: CIL module
 0001:000148b1       __unwindfunclet$?split@@YA?AV?$vector@V?$basic_string@DU?$char_traits@D@std@@V?$allocator@D@2@@std@@V?$allocator@V?$basic_string@DU?$char_traits@D@std@@V?$allocator@D@2@@std@@@2@@std@@ABV?$basic_string@DU?$char_traits@D@std@@V?$allocator@D@2@@2@D@Z$1 004158b1 f    CIL library: CIL module
 0001:000148b9       __unwindfunclet$?split@@YA?AV?$vector@V?$basic_string@DU?$char_traits@D@std@@V?$allocator@D@2@@std@@V?$allocator@V?$basic_string@DU?$char_traits@D@std@@V?$allocator@D@2@@std@@@2@@std@@ABV?$basic_string@DU?$char_traits@D@std@@V?$allocator@D@2@@2@D@Z$3 004158b9 f    CIL library: CIL module
 0001:000148be       __unwindfunclet$?split@@YA?AV?$vector@V?$basic_string@DU?$char_traits@D@std@@V?$allocator@D@2@@std@@V?$allocator@V?$basic_string@DU?$char_traits@D@std@@V?$allocator@D@2@@std@@@2@@std@@ABV?$basic_string@DU?$char_traits@D@std@@V?$allocator@D@2@@2@D@Z$4 004158be f    CIL library: CIL module
 0001:000148c3       __ehhandler$?split@@YA?AV?$vector@V?$basic_string@DU?$char_traits@D@std@@V?$allocator@D@2@@std@@V?$allocator@V?$basic_string@DU?$char_traits@D@std@@V?$allocator@D@2@@std@@@2@@std@@ABV?$basic_string@DU?$char_traits@D@std@@V?$allocator@D@2@@2@D@Z 004158c3 f    CIL library: CIL module
 0001:000148f0       __unwindfunclet$??0?$basic_ofstream@DU?$char_traits@D@std@@@std@@QAE@PBDHH@Z$0 004158f0 f    CIL library: CIL module
 0001:0001490d       __unwindfunclet$??0?$basic_ofstream@DU?$char_traits@D@std@@@std@@QAE@PBDHH@Z$1 0041590d f    CIL library: CIL module
 0001:00014919       __unwindfunclet$??0?$basic_ofstream@DU?$char_traits@D@std@@@std@@QAE@PBDHH@Z$3 00415919 f    CIL library: CIL module
 0001:00014922       __unwindfunclet$??0?$basic_ofstream@DU?$char_traits@D@std@@@std@@QAE@PBDHH@Z$2 00415922 f    CIL library: CIL module
 0001:0001492d       __ehhandler$??0?$basic_ofstream@DU?$char_traits@D@std@@@std@@QAE@PBDHH@Z 0041592d f    CIL library: CIL module
 0001:00014950       __unwindfunclet$?RecvFile@CProcessListInfo@@QAEXPAUPMSG_FILE_RECV@@@Z$0 00415950 f    CIL library: CIL module
 0001:0001495b       __unwindfunclet$?RecvFile@CProcessListInfo@@QAEXPAUPMSG_FILE_RECV@@@Z$2 0041595b f    CIL library: CIL module
 0001:00014963       __unwindfunclet$?RecvFile@CProcessListInfo@@QAEXPAUPMSG_FILE_RECV@@@Z$3 00415963 f    CIL library: CIL module
 0001:0001496e       __unwindfunclet$?RecvFile@CProcessListInfo@@QAEXPAUPMSG_FILE_RECV@@@Z$4 0041596e f    CIL library: CIL module
 0001:0001497a       __unwindfunclet$?RecvFile@CProcessListInfo@@QAEXPAUPMSG_FILE_RECV@@@Z$6 0041597a f    CIL library: CIL module
 0001:00014986       __ehhandler$?RecvFile@CProcessListInfo@@QAEXPAUPMSG_FILE_RECV@@@Z 00415986 f    CIL library: CIL module
 0001:000149b0       __unwindfunclet$?RecvProcessClass@CProcessListInfo@@QAEXPAUPMSG_WINDOW_CLASS_SEND@@@Z$0 004159b0 f    CIL library: CIL module
 0001:000149bb       __unwindfunclet$?RecvProcessClass@CProcessListInfo@@QAEXPAUPMSG_WINDOW_CLASS_SEND@@@Z$1 004159bb f    CIL library: CIL module
 0001:000149c3       __unwindfunclet$?RecvProcessClass@CProcessListInfo@@QAEXPAUPMSG_WINDOW_CLASS_SEND@@@Z$3 004159c3 f    CIL library: CIL module
 0001:000149cf       __unwindfunclet$?RecvProcessClass@CProcessListInfo@@QAEXPAUPMSG_WINDOW_CLASS_SEND@@@Z$5 004159cf f    CIL library: CIL module
 0001:000149d8       __ehhandler$?RecvProcessClass@CProcessListInfo@@QAEXPAUPMSG_WINDOW_CLASS_SEND@@@Z 004159d8 f    CIL library: CIL module
 0001:00014a00       __unwindfunclet$??_GCHidManager@@UAEPAXI@Z$0 00415a00 f    CIL library: CIL module
 0001:00014a0b       __unwindfunclet$??_GCHidManager@@UAEPAXI@Z$3 00415a0b f    CIL library: CIL module
 0001:00014a13       __ehhandler$??_GCHidManager@@UAEPAXI@Z 00415a13 f    CIL library: CIL module
 0001:00014a30       __unwindfunclet$??_G?$basic_ofstream@DU?$char_traits@D@std@@@std@@UAEPAXI@Z$0 00415a30 f    CIL library: CIL module
 0001:00014a3c       __ehhandler$??_G?$basic_ofstream@DU?$char_traits@D@std@@@std@@UAEPAXI@Z 00415a3c f    CIL library: CIL module
 0001:00014a60       __unwindfunclet$?validateIP@@YA_NV?$basic_string@DU?$char_traits@D@std@@V?$allocator@D@2@@std@@@Z$0 00415a60 f    CIL library: CIL module
 0001:00014a68       __unwindfunclet$?validateIP@@YA_NV?$basic_string@DU?$char_traits@D@std@@V?$allocator@D@2@@std@@@Z$1 00415a68 f    CIL library: CIL module
 0001:00014a70       __ehhandler$?validateIP@@YA_NV?$basic_string@DU?$char_traits@D@std@@V?$allocator@D@2@@std@@@Z 00415a70 f    CIL library: CIL module
 0001:00014a90       __unwindfunclet$?DrawScreen@CScreenShow@@SAXPAUHWND__@@PAUHDC__@@@Z$0 00415a90 f    CIL library: CIL module
 0001:00014a9b       __ehhandler$?DrawScreen@CScreenShow@@SAXPAUHWND__@@PAUHDC__@@@Z 00415a9b f    CIL library: CIL module
 0001:00014ad0       __unwindfunclet$?FindCodecForExtension@CImage@ATL@@CA?AU_GUID@@PBDPBVImageCodecInfo@Gdiplus@@I@Z$0 00415ad0 f    CIL library: CIL module
 0001:00014adb       __unwindfunclet$?FindCodecForExtension@CImage@ATL@@CA?AU_GUID@@PBDPBVImageCodecInfo@Gdiplus@@I@Z$4 00415adb f    CIL library: CIL module
 0001:00014ae6       __unwindfunclet$?FindCodecForExtension@CImage@ATL@@CA?AU_GUID@@PBDPBVImageCodecInfo@Gdiplus@@I@Z$1 00415ae6 f    CIL library: CIL module
 0001:00014af1       __unwindfunclet$?FindCodecForExtension@CImage@ATL@@CA?AU_GUID@@PBDPBVImageCodecInfo@Gdiplus@@I@Z$2 00415af1 f    CIL library: CIL module
 0001:00014afc       __unwindfunclet$?FindCodecForExtension@CImage@ATL@@CA?AU_GUID@@PBDPBVImageCodecInfo@Gdiplus@@I@Z$5 00415afc f    CIL library: CIL module
 0001:00014b07       __unwindfunclet$?FindCodecForExtension@CImage@ATL@@CA?AU_GUID@@PBDPBVImageCodecInfo@Gdiplus@@I@Z$3 00415b07 f    CIL library: CIL module
 0001:00014b12       __ehhandler$?FindCodecForExtension@CImage@ATL@@CA?AU_GUID@@PBDPBVImageCodecInfo@Gdiplus@@I@Z 00415b12 f    CIL library: CIL module
 0001:00014b40       __unwindfunclet$?SaveScreen@CScreenShot@@QAEXPAD0H@Z$0 00415b40 f    CIL library: CIL module
 0001:00014b4b       __ehhandler$?SaveScreen@CScreenShot@@QAEXPAD0H@Z 00415b4b f    CIL library: CIL module
 0001:00014b80       __unwindfunclet$??__FgProtection@@YAXXZ$2 00415b80 f    CIL library: CIL module
 0001:00014b88       __ehhandler$??__FgProtection@@YAXXZ 00415b88 f    CIL library: CIL module
 0001:00014bb0       __unwindfunclet$??__FgProcessManager@@YAXXZ$0 00415bb0 f    CIL library: CIL module
 0001:00014bba       __unwindfunclet$??__FgProcessManager@@YAXXZ$3 00415bba f    CIL library: CIL module
 0001:00014bc2       __ehhandler$??__FgProcessManager@@YAXXZ 00415bc2 f    CIL library: CIL module
 0001:00014be0       __unwindfunclet$??__FgIpManager@@YAXXZ$2 00415be0 f    CIL library: CIL module
 0001:00014be8       __ehhandler$??__FgIpManager@@YAXXZ 00415be8 f    CIL library: CIL module
 0001:00014c10       __unwindfunclet$??__FgHidManager@@YAXXZ$0 00415c10 f    CIL library: CIL module
 0001:00014c1a       __unwindfunclet$??__FgHidManager@@YAXXZ$3 00415c1a f    CIL library: CIL module
 0001:00014c22       __ehhandler$??__FgHidManager@@YAXXZ 00415c22 f    CIL library: CIL module
 0001:00014c40       ??__EgAuthenticate@@YAXXZ  00415c40 f    CIL library: CIL module
 0001:00014c70       ??__EgBlackList@@YAXXZ     00415c70 f    CIL library: CIL module
 0001:00014c80       ??__EgClientManager@@YAXXZ 00415c80 f    CIL library: CIL module
 0001:00014cb0       ??__EgHidManager@@YAXXZ    00415cb0 f    CIL library: CIL module
 0001:00014cd0       ??__EgIpManager@@YAXXZ     00415cd0 f    CIL library: CIL module
 0001:00014d50       ??__EgLog@@YAXXZ           00415d50 f    CIL library: CIL module
 0001:00014d60       ??__EgProcessListInfo@@YAXXZ 00415d60 f    CIL library: CIL module
 0001:00014d90       ??__EgProcessManager@@YAXXZ 00415d90 f    CIL library: CIL module
 0001:00014db0       ??__EgProtection@@YAXXZ    00415db0 f    CIL library: CIL module
 0001:00014dd0       ??__EgReadFiles@@YAXXZ     00415dd0 f    CIL library: CIL module
 0001:00014de0       ??__EgScreenShot@@YAXXZ    00415de0 f    CIL library: CIL module
 0001:00014e00       ??__EgScreenShow@@YAXXZ    00415e00 f    CIL library: CIL module
 0001:00014e20       ??__EgServerDisplayer@@YAXXZ 00415e20 f    CIL library: CIL module
 0001:00014e40       ??__EgServerInfo@@YAXXZ    00415e40 f    CIL library: CIL module
 0001:00014e50       ??__EgSocketManager@@YAXXZ 00415e50 f    CIL library: CIL module
 0001:00014e61       ??__E_Fac_tidy_reg@std@@YAXXZ 00415e61 f   msvcprt:locale0_implib.obj
 0001:00014e6d       ??__E?s_initGDIPlus@CImage@ATL@@0VCInitGDIPlus@12@A@@YAXXZ 00415e6d f   atls:atlimage2.obj
 0001:00014e83       ??__E?s_cache@CImage@ATL@@0VCDCCache@12@A@@YAXXZ 00415e83 f   atls:atlimage.obj
 0001:00014e9e       ??__Eg_strheap@ATL@@YAXXZ  00415e9e f   atls:atlstr.obj
 0001:00014ec6       ??__Eg_strmgr@ATL@@YAXXZ   00415ec6 f   atls:atlstr.obj
 0001:00014ed2       ??__E_AtlBaseModule@ATL@@YAXXZ 00415ed2 f   atls:atlbase.obj
 0001:00014ef0       ??__FgAuthenticate@@YAXXZ  00415ef0 f    CIL library: CIL module
 0001:00014f30       ??__FgBlackList@@YAXXZ     00415f30 f    CIL library: CIL module
 0001:00014f90       ??__FgClientManager@@YAXXZ 00415f90 f    CIL library: CIL module
 0001:00014fe0       ??__FgHidManager@@YAXXZ    00415fe0 f    CIL library: CIL module
 0001:00015090       ??__FgIpManager@@YAXXZ     00416090 f    CIL library: CIL module
 0001:00015110       ??__FgLog@@YAXXZ           00416110 f    CIL library: CIL module
 0001:00015120       ??__FgProcessListInfo@@YAXXZ 00416120 f    CIL library: CIL module
 0001:00015170       ??__FgProcessManager@@YAXXZ 00416170 f    CIL library: CIL module
 0001:00015200       ??__FgProtection@@YAXXZ    00416200 f    CIL library: CIL module
 0001:00015280       ??__FgReadFiles@@YAXXZ     00416280 f    CIL library: CIL module
 0001:00015290       ??__FgScreenShot@@YAXXZ    00416290 f    CIL library: CIL module
 0001:000152e0       ??__FgScreenShow@@YAXXZ    004162e0 f    CIL library: CIL module
 0001:00015340       ??__FgServerDisplayer@@YAXXZ 00416340 f    CIL library: CIL module
 0001:00015380       ??__FgServerInfo@@YAXXZ    00416380 f    CIL library: CIL module
 0001:00015390       ??__FgSocketManager@@YAXXZ 00416390 f    CIL library: CIL module
 0001:0001539a       ??__F_Fac_tidy_reg@std@@YAXXZ 0041639a f   msvcprt:locale0_implib.obj
 0001:000153a4       ??__F?s_initGDIPlus@CImage@ATL@@0VCInitGDIPlus@12@A@@YAXXZ 004163a4 f   atls:atlimage2.obj
 0001:000153ba       ??__F?s_cache@CImage@ATL@@0VCDCCache@12@A@@YAXXZ 004163ba f   atls:atlimage.obj
 0001:000153c4       ??__Fg_strheap@ATL@@YAXXZ  004163c4 f   atls:atlstr.obj
 0001:000153ce       ??__Fg_strmgr@ATL@@YAXXZ   004163ce f   atls:atlstr.obj
 0001:000153d9       ??__F_AtlBaseModule@ATL@@YAXXZ 004163d9 f   atls:atlbase.obj
