 MHPServer

 Timestamp is 6803f444 (Sat Apr 19 21:06:44 2025)

 Preferred load address is 00400000

 Start         Length     Name                   Class
 0001:00000000 00012cccH .text                   CODE
 0001:00012cd0 00000bb3H .text$x                 CODE
 0001:00013890 00000298H .text$yc                CODE
 0001:00013b30 00000453H .text$yd                CODE
 0002:00000000 00000570H .idata$5                DATA
 0002:00000570 00000004H .CRT$XCA                DATA
 0002:00000574 00000004H .CRT$XCAA               DATA
 0002:00000578 00000018H .CRT$XCL                DATA
 0002:00000590 0000003cH .CRT$XCU                DATA
 0002:000005cc 00000004H .CRT$XCZ                DATA
 0002:000005d0 00000004H .CRT$XIA                DATA
 0002:000005d4 00000004H .CRT$XIAA               DATA
 0002:000005d8 00000004H .CRT$XIC                DATA
 0002:000005dc 00000004H .CRT$XIY                DATA
 0002:000005e0 00000004H .CRT$XIZ                DATA
 0002:000005f0 00001bc0H .rdata                  DATA
 0002:000021b0 00000064H .rdata$debug            DATA
 0002:00002214 00000ab0H .rdata$r                DATA
 0002:00002cd0 000000e4H .rdata$sxdata           DATA
 0002:00002db4 00000004H .rtc$IAA                DATA
 0002:00002db8 00000004H .rtc$IZZ                DATA
 0002:00002dbc 00000004H .rtc$TAA                DATA
 0002:00002dc0 00000004H .rtc$TZZ                DATA
 0002:00002dc8 00001010H .xdata$x                DATA
 0002:00003dd8 00000000H ATL$__a                 DATA
 0002:00003dd8 00000000H ATL$__z                 DATA
 0002:00003dd8 00000118H .idata$2                DATA
 0002:00003ef0 00000014H .idata$3                DATA
 0002:00003f04 00000570H .idata$4                DATA
 0002:00004474 00001e3aH .idata$6                DATA
 0002:000062ae 00000000H .edata                  DATA
 0003:00000000 00005490H .data                   DATA
 0003:00005490 00185154H .bss                    DATA
 0004:00000000 00000394H .rsrc$01                DATA
 0004:000003a0 00003730H .rsrc$02                DATA

  Address         Publics by Value              Rva+Base       Lib:Object

 0000:00000000       __except_list              00000000     <absolute>
 0000:00000039       ___safe_se_handler_count   00000039     <absolute>
 0000:00009876       __ldused                   00009876     <absolute>
 0000:00009876       __fltused                  00009876     <absolute>
 0000:00000000       ___ImageBase               00400000     <linker-defined>
 0001:00000000       ??1bad_alloc@std@@UAE@XZ   00401000 f i pugixml.obj
 0001:00000010       ??_Gbad_alloc@std@@UAEPAXI@Z 00401010 f i pugixml.obj
 0001:00000010       ??_Ebad_alloc@std@@UAEPAXI@Z 00401010 f i  CIL library: CIL module
 0001:00000040       ??3@YAXPAX0@Z              00401040 f i pugixml.obj
 0001:00000050       ?assign@?$basic_string@DU?$char_traits@D@std@@V?$allocator@D@2@@std@@QAEAAV12@$$QAV12@@Z 00401050 f i pugixml.obj
 0001:000000c0       ?assign@?$basic_string@DU?$char_traits@D@std@@V?$allocator@D@2@@std@@QAEAAV12@ABV12@II@Z 004010c0 f i pugixml.obj
 0001:00000160       ?assign@?$basic_string@DU?$char_traits@D@std@@V?$allocator@D@2@@std@@QAEAAV12@PBDI@Z 00401160 f i pugixml.obj
 0001:00000230       ?erase@?$basic_string@DU?$char_traits@D@std@@V?$allocator@D@2@@std@@QAEAAV12@II@Z 00401230 f i pugixml.obj
 0001:000002b0       ?_Grow@?$basic_string@DU?$char_traits@D@std@@V?$allocator@D@2@@std@@QAE_NI_N@Z 004012b0 f i pugixml.obj
 0001:00000300       ?_Copy@?$basic_string@DU?$char_traits@D@std@@V?$allocator@D@2@@std@@QAEXII@Z 00401300 f i pugixml.obj
 0001:00000470       ??0bad_alloc@std@@QAE@ABV01@@Z 00401470 f i pugixml.obj
 0001:00000490       ??_GCAuthenticate@@UAEPAXI@Z 00401490 f i Authenticate.obj
 0001:00000490       ??_ECAuthenticate@@UAEPAXI@Z 00401490 f i  CIL library: CIL module
 0001:000004e0       ??_GCBlackList@@UAEPAXI@Z  004014e0 f i BlackList.obj
 0001:000004e0       ??_ECBlackList@@UAEPAXI@Z  004014e0 f i  CIL library: CIL module
 0001:00000540       ?SetList@CBlackList@@QAEXPAD@Z 00401540 f   BlackList.obj
 0001:00000700       ?CheckIpAddress@CBlackList@@QAE_NPAD@Z 00401700 f   BlackList.obj
 0001:00000790       ?CheckHardwareId@CBlackList@@QAE_NPAD@Z 00401790 f   BlackList.obj
 0001:00000820       ?WriteNewBlackList@CBlackList@@QAEXPAD@Z 00401820 f   BlackList.obj
 0001:00000b80       ??_D?$basic_ofstream@DU?$char_traits@D@std@@@std@@QAEXXZ 00401b80 f i BlackList.obj
 0001:00000c00       ?push_back@?$vector@UBLACKLIST_IPADDR_INFO@@V?$allocator@UBLACKLIST_IPADDR_INFO@@@std@@@std@@QAEXABUBLACKLIST_IPADDR_INFO@@@Z 00401c00 f i BlackList.obj
 0001:00000ca0       ?clear@?$vector@UBLACKLIST_IPADDR_INFO@@V?$allocator@UBLACKLIST_IPADDR_INFO@@@std@@@std@@QAEXXZ 00401ca0 f i BlackList.obj
 0001:00000ce0       ?push_back@?$vector@UBLACKLIST_HARDID_INFO@@V?$allocator@UBLACKLIST_HARDID_INFO@@@std@@@std@@QAEXABUBLACKLIST_HARDID_INFO@@@Z 00401ce0 f i BlackList.obj
 0001:00000d40       ??0?$basic_ofstream@DU?$char_traits@D@std@@@std@@QAE@XZ 00401d40 f i BlackList.obj
 0001:00000e00       ??1?$basic_filebuf@DU?$char_traits@D@std@@@std@@UAE@XZ 00401e00 f i BlackList.obj
 0001:00000ec0       ?_Lock@?$basic_filebuf@DU?$char_traits@D@std@@@std@@UAEXXZ 00401ec0 f i BlackList.obj
 0001:00000ed0       ?_Unlock@?$basic_filebuf@DU?$char_traits@D@std@@@std@@UAEXXZ 00401ed0 f i BlackList.obj
 0001:00000ee0       ?overflow@?$basic_filebuf@DU?$char_traits@D@std@@@std@@MAEHH@Z 00401ee0 f i BlackList.obj
 0001:00001120       ?pbackfail@?$basic_filebuf@DU?$char_traits@D@std@@@std@@MAEHH@Z 00402120 f i BlackList.obj
 0001:000011b0       ?underflow@?$basic_filebuf@DU?$char_traits@D@std@@@std@@MAEHXZ 004021b0 f i BlackList.obj
 0001:00001200       ?uflow@?$basic_filebuf@DU?$char_traits@D@std@@@std@@MAEHXZ 00402200 f i BlackList.obj
 0001:000014a0       ?seekoff@?$basic_filebuf@DU?$char_traits@D@std@@@std@@MAE?AV?$fpos@H@2@_JHH@Z 004024a0 f i BlackList.obj
 0001:000015a0       ?seekpos@?$basic_filebuf@DU?$char_traits@D@std@@@std@@MAE?AV?$fpos@H@2@V32@H@Z 004025a0 f i BlackList.obj
 0001:00001690       ?setbuf@?$basic_filebuf@DU?$char_traits@D@std@@@std@@MAEPAV?$basic_streambuf@DU?$char_traits@D@std@@@2@PAD_J@Z 00402690 f i BlackList.obj
 0001:00001720       ?sync@?$basic_filebuf@DU?$char_traits@D@std@@@std@@MAEHXZ 00402720 f i BlackList.obj
 0001:00001760       ?imbue@?$basic_filebuf@DU?$char_traits@D@std@@@std@@MAEXABVlocale@2@@Z 00402760 f i BlackList.obj
 0001:000017a0       ??_E?$basic_ofstream@DU?$char_traits@D@std@@@std@@UAEPAXI@Z 004027a0 f i  CIL library: CIL module
 0001:000017a0       ??_G?$basic_ofstream@DU?$char_traits@D@std@@@std@@UAEPAXI@Z 004027a0 f i BlackList.obj
 0001:00001830       ??_G?$basic_filebuf@DU?$char_traits@D@std@@@std@@UAEPAXI@Z 00402830 f i BlackList.obj
 0001:00001830       ??_E?$basic_filebuf@DU?$char_traits@D@std@@@std@@UAEPAXI@Z 00402830 f i  CIL library: CIL module
 0001:00001860       ?_Reserve@?$vector@UBLACKLIST_IPADDR_INFO@@V?$allocator@UBLACKLIST_IPADDR_INFO@@@std@@@std@@IAEXI@Z 00402860 f i BlackList.obj
 0001:000018d0       ?_Reserve@?$vector@UBLACKLIST_HARDID_INFO@@V?$allocator@UBLACKLIST_HARDID_INFO@@@std@@@std@@IAEXI@Z 004028d0 f i BlackList.obj
 0001:00001940       ?open@?$basic_filebuf@DU?$char_traits@D@std@@@std@@QAEPAV12@PBDHH@Z 00402940 f i BlackList.obj
 0001:00001a40       ?_Endwrite@?$basic_filebuf@DU?$char_traits@D@std@@@std@@IAE_NXZ 00402a40 f i BlackList.obj
 0001:00001bd0       ?_Reset_back@?$basic_filebuf@DU?$char_traits@D@std@@@std@@AAEXXZ 00402bd0 f i BlackList.obj
 0001:00001c00       ?_Set_back@?$basic_filebuf@DU?$char_traits@D@std@@@std@@AAEXXZ 00402c00 f i BlackList.obj
 0001:00001c40       ?reserve@?$vector@UBLACKLIST_IPADDR_INFO@@V?$allocator@UBLACKLIST_IPADDR_INFO@@@std@@@std@@QAEXI@Z 00402c40 f i BlackList.obj
 0001:00001d30       ?reserve@?$vector@UBLACKLIST_HARDID_INFO@@V?$allocator@UBLACKLIST_HARDID_INFO@@@std@@@std@@QAEXI@Z 00402d30 f i BlackList.obj
 0001:00001e20       ?allocate@?$allocator@UBLACKLIST_IPADDR_INFO@@@std@@QAEPAUBLACKLIST_IPADDR_INFO@@I@Z 00402e20 f i BlackList.obj
 0001:00001e80       ?allocate@?$allocator@UBLACKLIST_HARDID_INFO@@@std@@QAEPAUBLACKLIST_HARDID_INFO@@I@Z 00402e80 f i BlackList.obj
 0001:00001ee0       ??$?6U?$char_traits@D@std@@@std@@YAAAV?$basic_ostream@DU?$char_traits@D@std@@@0@AAV10@PBD@Z 00402ee0 f i BlackList.obj
 0001:00002130       ??$use_facet@V?$codecvt@DDH@std@@@std@@YAABV?$codecvt@DDH@0@ABVlocale@0@@Z 00403130 f i BlackList.obj
 0001:00002230       ??$_Uninit_move@PAUBLACKLIST_IPADDR_INFO@@PAU1@V?$allocator@UBLACKLIST_IPADDR_INFO@@@std@@U1@@std@@YAPAUBLACKLIST_IPADDR_INFO@@PAU1@00AAV?$allocator@UBLACKLIST_IPADDR_INFO@@@0@0U_Nonscalar_ptr_iterator_tag@0@@Z 00403230 f i BlackList.obj
 0001:00002260       ??$_Uninit_move@PAUBLACKLIST_HARDID_INFO@@PAU1@V?$allocator@UBLACKLIST_HARDID_INFO@@@std@@U1@@std@@YAPAUBLACKLIST_HARDID_INFO@@PAU1@00AAV?$allocator@UBLACKLIST_HARDID_INFO@@@0@0U_Nonscalar_ptr_iterator_tag@0@@Z 00403260 f i BlackList.obj
 0001:00002290       ??0?$basic_string@DU?$char_traits@D@std@@V?$allocator@D@2@@std@@QAE@ID@Z 00403290 f i BlackList.obj
 0001:000022f0       ??1locale@std@@QAE@XZ      004032f0 f i BlackList.obj
 0001:00002310       ??1_Sentry_base@?$basic_ostream@DU?$char_traits@D@std@@@std@@QAE@XZ 00403310 f i BlackList.obj
 0001:00002330       ??1sentry@?$basic_ostream@DU?$char_traits@D@std@@@std@@QAE@XZ 00403330 f i BlackList.obj
 0001:000023a0       ?Initialize@CCRC32@@QAEXXZ 004033a0 f   CCRC32.obj
 0001:000024e0       ?FileCRC@CCRC32@@QAE_NPBDPAKK@Z 004034e0 f   CCRC32.obj
 0001:000025d0       ??0CClientManager@@QAE@XZ  004035d0 f   ClientManager.obj
 0001:00002610       ??_GCClientManager@@UAEPAXI@Z 00403610 f i ClientManager.obj
 0001:00002610       ??_ECClientManager@@UAEPAXI@Z 00403610 f i  CIL library: CIL module
 0001:00002640       ??1CClientManager@@UAE@XZ  00403640 f   ClientManager.obj
 0001:00002650       ?AddClient@CClientManager@@QAEXHPADI@Z 00403650 f   ClientManager.obj
 0001:000027a0       ?DelClient@CClientManager@@QAEXXZ 004037a0 f   ClientManager.obj
 0001:00002810       ?SetClientInfo@CClientManager@@QAEXPAD@Z 00403810 f   ClientManager.obj
 0001:00002840       ??_D?$basic_stringstream@DU?$char_traits@D@std@@V?$allocator@D@2@@std@@QAEXXZ 00403840 f i computerHash.obj
 0001:000028b0       ?substr@?$basic_string@DU?$char_traits@D@std@@V?$allocator@D@2@@std@@QBE?AV12@II@Z 004038b0 f i computerHash.obj
 0001:000028e0       ??0?$basic_stringstream@DU?$char_traits@D@std@@V?$allocator@D@2@@std@@QAE@H@Z 004038e0 f i computerHash.obj
 0001:00002980       ?str@?$basic_stringstream@DU?$char_traits@D@std@@V?$allocator@D@2@@std@@QBE?AV?$basic_string@DU?$char_traits@D@std@@V?$allocator@D@2@@2@XZ 00403980 f i computerHash.obj
 0001:000029a0       ??1?$basic_stringbuf@DU?$char_traits@D@std@@V?$allocator@D@2@@std@@UAE@XZ 004039a0 f i computerHash.obj
 0001:00002a10       ?overflow@?$basic_stringbuf@DU?$char_traits@D@std@@V?$allocator@D@2@@std@@MAEHH@Z 00403a10 f i computerHash.obj
 0001:00002be0       ?pbackfail@?$basic_stringbuf@DU?$char_traits@D@std@@V?$allocator@D@2@@std@@MAEHH@Z 00403be0 f i computerHash.obj
 0001:00002c30       ?underflow@?$basic_stringbuf@DU?$char_traits@D@std@@V?$allocator@D@2@@std@@MAEHXZ 00403c30 f i computerHash.obj
 0001:00002ca0       ?seekoff@?$basic_stringbuf@DU?$char_traits@D@std@@V?$allocator@D@2@@std@@MAE?AV?$fpos@H@2@_JHH@Z 00403ca0 f i computerHash.obj
 0001:00002e50       ?seekpos@?$basic_stringbuf@DU?$char_traits@D@std@@V?$allocator@D@2@@std@@MAE?AV?$fpos@H@2@V32@H@Z 00403e50 f i computerHash.obj
 0001:00002f80       ??_G?$basic_stringstream@DU?$char_traits@D@std@@V?$allocator@D@2@@std@@UAEPAXI@Z 00403f80 f i computerHash.obj
 0001:00002f80       ??_E?$basic_stringstream@DU?$char_traits@D@std@@V?$allocator@D@2@@std@@UAEPAXI@Z 00403f80 f i  CIL library: CIL module
 0001:00003010       ??_G?$basic_stringbuf@DU?$char_traits@D@std@@V?$allocator@D@2@@std@@UAEPAXI@Z 00404010 f i computerHash.obj
 0001:00003010       ??_E?$basic_stringbuf@DU?$char_traits@D@std@@V?$allocator@D@2@@std@@UAEPAXI@Z 00404010 f i  CIL library: CIL module
 0001:00003040       ?str@?$basic_stringbuf@DU?$char_traits@D@std@@V?$allocator@D@2@@std@@QBE?AV?$basic_string@DU?$char_traits@D@std@@V?$allocator@D@2@@2@XZ 00404040 f i computerHash.obj
 0001:00003170       ??_ECCriticalSection@@UAEPAXI@Z 00404170 f i  CIL library: CIL module
 0001:00003170       ??_GCCriticalSection@@UAEPAXI@Z 00404170 f i CriticalSection.obj
 0001:000031a0       ??1CCriticalSection@@UAE@XZ 004041a0 f   CriticalSection.obj
 0001:000031c0       ?httpGet@@YAHPADH0@Z       004041c0 f   FileDownloadHTTP.obj
 0001:00003400       ?recvLine@@YAHHPADH@Z      00404400 f   FileDownloadHTTP.obj
 0001:00003450       ??$sprintf_s@$0PPPP@@@YAHAAY0PPPP@DPBDZZ 00404450 f i FileDownloadHTTP.obj
 0001:00003470       ?breakUrl@@YAXPBDPAUURLPARTS_T@@@Z 00404470 f   FileDownloadURL.obj
 0001:000035d0       _WinMain@16                004045d0 f   HackServer.obj
 0001:00003800       ?MyRegisterClass@@YAGPAUHINSTANCE__@@@Z 00404800 f   HackServer.obj
 0001:00003880       ?InitInstance@@YAHPAUHINSTANCE__@@H@Z 00404880 f   HackServer.obj
 0001:000038f0       ?wnd_proc@@YGJPAUHWND__@@IIJ@Z 004048f0 f   HackServer.obj
 0001:00003b60       ?About@@YGJPAUHWND__@@IIJ@Z 00404b60 f   HackServer.obj
 0001:00003ba0       ?PlayersList@@YGJPAUHWND__@@IIJ@Z 00404ba0 f   HackServer.obj
 0001:00003d20       ?Banned@@YGJPAUHWND__@@IIJ@Z 00404d20 f   HackServer.obj
 0001:00003e10       ?Screen@@YGJPAUHWND__@@IIJ@Z 00404e10 f   HackServer.obj
 0001:00003ff0       ?SetListViewColumns@@YAHPAUHWND__@@HHPAPADPAH@Z 00404ff0 f   HackServer.obj
 0001:00004070       ?CreateListView@@YAPAUHWND__@@PAU1@I@Z 00405070 f   HackServer.obj
 0001:00004110       ?ProcessList@@YGJPAUHWND__@@IIJ@Z 00405110 f   HackServer.obj
 0001:00004330       ?HackServerProtocolCore@@YAXHEPAEH@Z 00405330 f   HackServerProtocol.obj
 0001:000044c0       ?CHClientInfoRecv@@YAXPAUSDHP_CLIENT_INFO_RECV@@H@Z 004054c0 f   HackServerProtocol.obj
 0001:00004790       ?CHConnectionStatusRecv@@YAXPAUSDHP_CONNECTION_STATUS_RECV@@H@Z 00405790 f   HackServerProtocol.obj
 0001:000047e0       ?CHClientDisconnectRecv@@YAXPAUSDHP_CLIENT_DISCONNECT_RECV@@H@Z 004057e0 f   HackServerProtocol.obj
 0001:00004a70       ?CGAccountInfoRecv@@YAXPAUSDHP_CLIENT_ACCOUNT_INFO_RECV@@H@Z 00405a70 f   HackServerProtocol.obj
 0001:00004ac0       ?HCDumpListSend@@YAXH@Z    00405ac0 f   HackServerProtocol.obj
 0001:00004c50       ?HCChecksumListSend@@YAXH@Z 00405c50 f   HackServerProtocol.obj
 0001:00004dc0       ?HCInternalListSend@@YAXH@Z 00405dc0 f   HackServerProtocol.obj
 0001:00004f30       ?HCWindowListSend@@YAXH@Z  00405f30 f   HackServerProtocol.obj
 0001:00005090       ?HCClientDisconnectSend@@YAXHH@Z 00406090 f   HackServerProtocol.obj
 0001:000050e0       ?init_dialog@CHelperPlayers@@QAEXQAUHWND__@@@Z 004060e0 f   HelperPlayers.obj
 0001:00005130       ?close_client@CHelperPlayers@@QAEXXZ 00406130 f   HelperPlayers.obj
 0001:000051d0       ?search_ip@CHelperPlayers@@QAEXXZ 004061d0 f   HelperPlayers.obj
 0001:00005440       ?ban_ip@CHelperPlayers@@QAEXXZ 00406440 f   HelperPlayers.obj
 0001:00005500       ?ban_hwid@CHelperPlayers@@QAEXXZ 00406500 f   HelperPlayers.obj
 0001:00005610       ?reset_pc@CHelperPlayers@@QAEXXZ 00406610 f   HelperPlayers.obj
 0001:000056b0       ?list_ip@CHelperPlayers@@QAEXI@Z 004066b0 f   HelperPlayers.obj
 0001:00005840       ?list_hwid@CHelperPlayers@@QAEXI@Z 00406840 f   HelperPlayers.obj
 0001:00005910       ?make_screen_shot@CHelperPlayers@@QAEXXZ 00406910 f   HelperPlayers.obj
 0001:000059a0       ?reload@CHelperPlayers@@QAEXXZ 004069a0 f   HelperPlayers.obj
 0001:00005ac0       ?process_list@CHelperPlayers@@QAEXXZ 00406ac0 f   HelperPlayers.obj
 0001:00005b60       ?screen_show@CHelperPlayers@@QAEXXZ 00406b60 f   HelperPlayers.obj
 0001:00005c90       ?set_account_info@CHelperPlayers@@QAEXH@Z 00406c90 f   HelperPlayers.obj
 0001:00005d50       ??_GCHidManager@@UAEPAXI@Z 00406d50 f i HidManager.obj
 0001:00005d50       ??_ECHidManager@@UAEPAXI@Z 00406d50 f i  CIL library: CIL module
 0001:00005da0       ?CheckHardwareId@CHidManager@@QAE_NQAD@Z 00406da0 f   HidManager.obj
 0001:00005e20       ?InsertHardwareId@CHidManager@@QAEXQAD@Z 00406e20 f   HidManager.obj
 0001:00005ef0       ?ClearHardwareId@CHidManager@@QAEXXZ 00406ef0 f   HidManager.obj
 0001:00005f60       ?DeleteAllHardwareId@CHidManager@@QAEXXZ 00406f60 f   HidManager.obj
 0001:00005fe0       ?_Reserve@?$vector@UHARDWARE_ID_INFO@@V?$allocator@UHARDWARE_ID_INFO@@@std@@@std@@IAEXI@Z 00406fe0 f i HidManager.obj
 0001:00006050       ?reserve@?$vector@UHARDWARE_ID_INFO@@V?$allocator@UHARDWARE_ID_INFO@@@std@@@std@@QAEXI@Z 00407050 f i HidManager.obj
 0001:00006140       ?allocate@?$allocator@UHARDWARE_ID_INFO@@@std@@QAEPAUHARDWARE_ID_INFO@@I@Z 00407140 f i HidManager.obj
 0001:000061a0       ??$_Uninit_move@PAUHARDWARE_ID_INFO@@PAU1@V?$allocator@UHARDWARE_ID_INFO@@@std@@U1@@std@@YAPAUHARDWARE_ID_INFO@@PAU1@00AAV?$allocator@UHARDWARE_ID_INFO@@@0@0U_Nonscalar_ptr_iterator_tag@0@@Z 004071a0 f i HidManager.obj
 0001:000061d0       ??_GCIpManager@@UAEPAXI@Z  004071d0 f i IpManager.obj
 0001:000061d0       ??_ECIpManager@@UAEPAXI@Z  004071d0 f i  CIL library: CIL module
 0001:00006250       ?CheckIpAddress@CIpManager@@QAE_NPAD@Z 00407250 f   IpManager.obj
 0001:00006320       ?InsertIpAddress@CIpManager@@QAEXPAD@Z 00407320 f   IpManager.obj
 0001:000064d0       ??1?$pair@V?$basic_string@DU?$char_traits@D@std@@V?$allocator@D@2@@std@@UIP_ADDRESS_INFO@@@std@@QAE@XZ 004074d0 f i IpManager.obj
 0001:000064d0       ??1?$basic_string@DU?$char_traits@D@std@@V?$allocator@D@2@@std@@QAE@XZ 004074d0 f i pugixml.obj
 0001:00006500       ?RemoveIpAddress@CIpManager@@QAEXPAD@Z 00407500 f   IpManager.obj
 0001:000065d0       ?erase@?$_Tree@V?$_Tmap_traits@V?$basic_string@DU?$char_traits@D@std@@V?$allocator@D@2@@std@@UIP_ADDRESS_INFO@@U?$less@V?$basic_string@DU?$char_traits@D@std@@V?$allocator@D@2@@std@@@2@V?$allocator@U?$pair@$$CBV?$basic_string@DU?$char_traits@D@std@@V?$allocator@D@2@@std@@UIP_ADDRESS_INFO@@@std@@@2@$0A@@std@@@std@@QAE?AV?$_Tree_iterator@V?$_Tree_val@V?$_Tmap_traits@V?$basic_string@DU?$char_traits@D@std@@V?$allocator@D@2@@std@@UIP_ADDRESS_INFO@@U?$less@V?$basic_string@DU?$char_traits@D@std@@V?$allocator@D@2@@std@@@2@V?$allocator@U?$pair@$$CBV?$basic_string@DU?$char_traits@D@std@@V?$allocator@D@2@@std@@UIP_ADDRESS_INFO@@@std@@@2@$0A@@std@@@std@@@2@V?$_Tree_const_iterator@V?$_Tree_val@V?$_Tmap_traits@V?$basic_string@DU?$char_traits@D@std@@V?$allocator@D@2@@std@@UIP_ADDRESS_INFO@@U?$less@V?$basic_string@DU?$char_traits@D@std@@V?$allocator@D@2@@std@@@2@V?$allocator@U?$pair@$$CBV?$basic_string@DU?$char_traits@D@std@@V?$allocator@D@2@@std@@UIP_ADDRESS_INFO@@@std@@@2@$0A@@std@@@std@@@2@@Z 004075d0 f i IpManager.obj
 0001:00006860       ?find@?$_Tree@V?$_Tmap_traits@V?$basic_string@DU?$char_traits@D@std@@V?$allocator@D@2@@std@@UIP_ADDRESS_INFO@@U?$less@V?$basic_string@DU?$char_traits@D@std@@V?$allocator@D@2@@std@@@2@V?$allocator@U?$pair@$$CBV?$basic_string@DU?$char_traits@D@std@@V?$allocator@D@2@@std@@UIP_ADDRESS_INFO@@@std@@@2@$0A@@std@@@std@@QAE?AV?$_Tree_iterator@V?$_Tree_val@V?$_Tmap_traits@V?$basic_string@DU?$char_traits@D@std@@V?$allocator@D@2@@std@@UIP_ADDRESS_INFO@@U?$less@V?$basic_string@DU?$char_traits@D@std@@V?$allocator@D@2@@std@@@2@V?$allocator@U?$pair@$$CBV?$basic_string@DU?$char_traits@D@std@@V?$allocator@D@2@@std@@UIP_ADDRESS_INFO@@@std@@@2@$0A@@std@@@std@@@2@ABV?$basic_string@DU?$char_traits@D@std@@V?$allocator@D@2@@2@@Z 00407860 f i IpManager.obj
 0001:000068f0       ?_Lrotate@?$_Tree@V?$_Tmap_traits@V?$basic_string@DU?$char_traits@D@std@@V?$allocator@D@2@@std@@UIP_ADDRESS_INFO@@U?$less@V?$basic_string@DU?$char_traits@D@std@@V?$allocator@D@2@@std@@@2@V?$allocator@U?$pair@$$CBV?$basic_string@DU?$char_traits@D@std@@V?$allocator@D@2@@std@@UIP_ADDRESS_INFO@@@std@@@2@$0A@@std@@@std@@IAEXPAU_Node@?$_Tree_nod@V?$_Tmap_traits@V?$basic_string@DU?$char_traits@D@std@@V?$allocator@D@2@@std@@UIP_ADDRESS_INFO@@U?$less@V?$basic_string@DU?$char_traits@D@std@@V?$allocator@D@2@@std@@@2@V?$allocator@U?$pair@$$CBV?$basic_string@DU?$char_traits@D@std@@V?$allocator@D@2@@std@@UIP_ADDRESS_INFO@@@std@@@2@$0A@@std@@@2@@Z 004078f0 f i IpManager.obj
 0001:00006950       ?_Rrotate@?$_Tree@V?$_Tmap_traits@V?$basic_string@DU?$char_traits@D@std@@V?$allocator@D@2@@std@@UIP_ADDRESS_INFO@@U?$less@V?$basic_string@DU?$char_traits@D@std@@V?$allocator@D@2@@std@@@2@V?$allocator@U?$pair@$$CBV?$basic_string@DU?$char_traits@D@std@@V?$allocator@D@2@@std@@UIP_ADDRESS_INFO@@@std@@@2@$0A@@std@@@std@@IAEXPAU_Node@?$_Tree_nod@V?$_Tmap_traits@V?$basic_string@DU?$char_traits@D@std@@V?$allocator@D@2@@std@@UIP_ADDRESS_INFO@@U?$less@V?$basic_string@DU?$char_traits@D@std@@V?$allocator@D@2@@std@@@2@V?$allocator@U?$pair@$$CBV?$basic_string@DU?$char_traits@D@std@@V?$allocator@D@2@@std@@UIP_ADDRESS_INFO@@@std@@@2@$0A@@std@@@2@@Z 00407950 f i IpManager.obj
 0001:000069b0       ?_Max@?$_Tree_val@V?$_Tmap_traits@V?$basic_string@DU?$char_traits@D@std@@V?$allocator@D@2@@std@@UIP_ADDRESS_INFO@@U?$less@V?$basic_string@DU?$char_traits@D@std@@V?$allocator@D@2@@std@@@2@V?$allocator@U?$pair@$$CBV?$basic_string@DU?$char_traits@D@std@@V?$allocator@D@2@@std@@UIP_ADDRESS_INFO@@@std@@@2@$0A@@std@@@std@@SAPAU_Node@?$_Tree_nod@V?$_Tmap_traits@V?$basic_string@DU?$char_traits@D@std@@V?$allocator@D@2@@std@@UIP_ADDRESS_INFO@@U?$less@V?$basic_string@DU?$char_traits@D@std@@V?$allocator@D@2@@std@@@2@V?$allocator@U?$pair@$$CBV?$basic_string@DU?$char_traits@D@std@@V?$allocator@D@2@@std@@UIP_ADDRESS_INFO@@@std@@@2@$0A@@std@@@2@PAU342@@Z 004079b0 f i IpManager.obj
 0001:000069d0       ?erase@?$_Tree@V?$_Tmap_traits@V?$basic_string@DU?$char_traits@D@std@@V?$allocator@D@2@@std@@UIP_ADDRESS_INFO@@U?$less@V?$basic_string@DU?$char_traits@D@std@@V?$allocator@D@2@@std@@@2@V?$allocator@U?$pair@$$CBV?$basic_string@DU?$char_traits@D@std@@V?$allocator@D@2@@std@@UIP_ADDRESS_INFO@@@std@@@2@$0A@@std@@@std@@QAE?AV?$_Tree_iterator@V?$_Tree_val@V?$_Tmap_traits@V?$basic_string@DU?$char_traits@D@std@@V?$allocator@D@2@@std@@UIP_ADDRESS_INFO@@U?$less@V?$basic_string@DU?$char_traits@D@std@@V?$allocator@D@2@@std@@@2@V?$allocator@U?$pair@$$CBV?$basic_string@DU?$char_traits@D@std@@V?$allocator@D@2@@std@@UIP_ADDRESS_INFO@@@std@@@2@$0A@@std@@@std@@@2@V?$_Tree_const_iterator@V?$_Tree_val@V?$_Tmap_traits@V?$basic_string@DU?$char_traits@D@std@@V?$allocator@D@2@@std@@UIP_ADDRESS_INFO@@U?$less@V?$basic_string@DU?$char_traits@D@std@@V?$allocator@D@2@@std@@@2@V?$allocator@U?$pair@$$CBV?$basic_string@DU?$char_traits@D@std@@V?$allocator@D@2@@std@@UIP_ADDRESS_INFO@@@std@@@2@$0A@@std@@@std@@@2@0@Z 004079d0 f i IpManager.obj
 0001:00006a90       ?_Lbound@?$_Tree@V?$_Tmap_traits@V?$basic_string@DU?$char_traits@D@std@@V?$allocator@D@2@@std@@UIP_ADDRESS_INFO@@U?$less@V?$basic_string@DU?$char_traits@D@std@@V?$allocator@D@2@@std@@@2@V?$allocator@U?$pair@$$CBV?$basic_string@DU?$char_traits@D@std@@V?$allocator@D@2@@std@@UIP_ADDRESS_INFO@@@std@@@2@$0A@@std@@@std@@IAEPAU_Node@?$_Tree_nod@V?$_Tmap_traits@V?$basic_string@DU?$char_traits@D@std@@V?$allocator@D@2@@std@@UIP_ADDRESS_INFO@@U?$less@V?$basic_string@DU?$char_traits@D@std@@V?$allocator@D@2@@std@@@2@V?$allocator@U?$pair@$$CBV?$basic_string@DU?$char_traits@D@std@@V?$allocator@D@2@@std@@UIP_ADDRESS_INFO@@@std@@@2@$0A@@std@@@2@ABV?$basic_string@DU?$char_traits@D@std@@V?$allocator@D@2@@2@@Z 00407a90 f i IpManager.obj
 0001:00006b10       ??E?$_Tree_unchecked_const_iterator@V?$_Tree_val@V?$_Tmap_traits@V?$basic_string@DU?$char_traits@D@std@@V?$allocator@D@2@@std@@UIP_ADDRESS_INFO@@U?$less@V?$basic_string@DU?$char_traits@D@std@@V?$allocator@D@2@@std@@@2@V?$allocator@U?$pair@$$CBV?$basic_string@DU?$char_traits@D@std@@V?$allocator@D@2@@std@@UIP_ADDRESS_INFO@@@std@@@2@$0A@@std@@@std@@U_Iterator_base0@2@@std@@QAEAAV01@XZ 00407b10 f i IpManager.obj
 0001:00006b60       ?_Erase@?$_Tree@V?$_Tmap_traits@V?$basic_string@DU?$char_traits@D@std@@V?$allocator@D@2@@std@@UIP_ADDRESS_INFO@@U?$less@V?$basic_string@DU?$char_traits@D@std@@V?$allocator@D@2@@std@@@2@V?$allocator@U?$pair@$$CBV?$basic_string@DU?$char_traits@D@std@@V?$allocator@D@2@@std@@UIP_ADDRESS_INFO@@@std@@@2@$0A@@std@@@std@@IAEXPAU_Node@?$_Tree_nod@V?$_Tmap_traits@V?$basic_string@DU?$char_traits@D@std@@V?$allocator@D@2@@std@@UIP_ADDRESS_INFO@@U?$less@V?$basic_string@DU?$char_traits@D@std@@V?$allocator@D@2@@std@@@2@V?$allocator@U?$pair@$$CBV?$basic_string@DU?$char_traits@D@std@@V?$allocator@D@2@@std@@UIP_ADDRESS_INFO@@@std@@@2@$0A@@std@@@2@@Z 00407b60 f i IpManager.obj
 0001:00006bd0       ?_Linsert@?$_Tree@V?$_Tmap_traits@V?$basic_string@DU?$char_traits@D@std@@V?$allocator@D@2@@std@@UIP_ADDRESS_INFO@@U?$less@V?$basic_string@DU?$char_traits@D@std@@V?$allocator@D@2@@std@@@2@V?$allocator@U?$pair@$$CBV?$basic_string@DU?$char_traits@D@std@@V?$allocator@D@2@@std@@UIP_ADDRESS_INFO@@@std@@@2@$0A@@std@@@std@@QAE?AU?$pair@V?$_Tree_iterator@V?$_Tree_val@V?$_Tmap_traits@V?$basic_string@DU?$char_traits@D@std@@V?$allocator@D@2@@std@@UIP_ADDRESS_INFO@@U?$less@V?$basic_string@DU?$char_traits@D@std@@V?$allocator@D@2@@std@@@2@V?$allocator@U?$pair@$$CBV?$basic_string@DU?$char_traits@D@std@@V?$allocator@D@2@@std@@UIP_ADDRESS_INFO@@@std@@@2@$0A@@std@@@std@@@std@@_N@2@PAU_Node@?$_Tree_nod@V?$_Tmap_traits@V?$basic_string@DU?$char_traits@D@std@@V?$allocator@D@2@@std@@UIP_ADDRESS_INFO@@U?$less@V?$basic_string@DU?$char_traits@D@std@@V?$allocator@D@2@@std@@@2@V?$allocator@U?$pair@$$CBV?$basic_string@DU?$char_traits@D@std@@V?$allocator@D@2@@std@@UIP_ADDRESS_INFO@@@std@@@2@$0A@@std@@@2@_N@Z 00407bd0 f i IpManager.obj
 0001:00006d70       ?_Insert@?$_Tree@V?$_Tmap_traits@V?$basic_string@DU?$char_traits@D@std@@V?$allocator@D@2@@std@@UIP_ADDRESS_INFO@@U?$less@V?$basic_string@DU?$char_traits@D@std@@V?$allocator@D@2@@std@@@2@V?$allocator@U?$pair@$$CBV?$basic_string@DU?$char_traits@D@std@@V?$allocator@D@2@@std@@UIP_ADDRESS_INFO@@@std@@@2@$0A@@std@@@std@@IAE?AV?$_Tree_iterator@V?$_Tree_val@V?$_Tmap_traits@V?$basic_string@DU?$char_traits@D@std@@V?$allocator@D@2@@std@@UIP_ADDRESS_INFO@@U?$less@V?$basic_string@DU?$char_traits@D@std@@V?$allocator@D@2@@std@@@2@V?$allocator@U?$pair@$$CBV?$basic_string@DU?$char_traits@D@std@@V?$allocator@D@2@@std@@UIP_ADDRESS_INFO@@@std@@@2@$0A@@std@@@std@@@2@_NPAU_Node@?$_Tree_nod@V?$_Tmap_traits@V?$basic_string@DU?$char_traits@D@std@@V?$allocator@D@2@@std@@UIP_ADDRESS_INFO@@U?$less@V?$basic_string@DU?$char_traits@D@std@@V?$allocator@D@2@@std@@@2@V?$allocator@U?$pair@$$CBV?$basic_string@DU?$char_traits@D@std@@V?$allocator@D@2@@std@@UIP_ADDRESS_INFO@@@std@@@2@$0A@@std@@@2@1@Z 00407d70 f i IpManager.obj
 0001:00006fa0       ??F?$_Tree_unchecked_const_iterator@V?$_Tree_val@V?$_Tmap_traits@V?$basic_string@DU?$char_traits@D@std@@V?$allocator@D@2@@std@@UIP_ADDRESS_INFO@@U?$less@V?$basic_string@DU?$char_traits@D@std@@V?$allocator@D@2@@std@@@2@V?$allocator@U?$pair@$$CBV?$basic_string@DU?$char_traits@D@std@@V?$allocator@D@2@@std@@UIP_ADDRESS_INFO@@@std@@@2@$0A@@std@@@std@@U_Iterator_base0@2@@std@@QAEAAV01@XZ 00407fa0 f i IpManager.obj
 0001:00007000       ??$_Buynode@U?$pair@V?$basic_string@DU?$char_traits@D@std@@V?$allocator@D@2@@std@@UIP_ADDRESS_INFO@@@std@@@?$_Tree_val@V?$_Tmap_traits@V?$basic_string@DU?$char_traits@D@std@@V?$allocator@D@2@@std@@UIP_ADDRESS_INFO@@U?$less@V?$basic_string@DU?$char_traits@D@std@@V?$allocator@D@2@@std@@@2@V?$allocator@U?$pair@$$CBV?$basic_string@DU?$char_traits@D@std@@V?$allocator@D@2@@std@@UIP_ADDRESS_INFO@@@std@@@2@$0A@@std@@@std@@QAEPAU_Node@?$_Tree_nod@V?$_Tmap_traits@V?$basic_string@DU?$char_traits@D@std@@V?$allocator@D@2@@std@@UIP_ADDRESS_INFO@@U?$less@V?$basic_string@DU?$char_traits@D@std@@V?$allocator@D@2@@std@@@2@V?$allocator@U?$pair@$$CBV?$basic_string@DU?$char_traits@D@std@@V?$allocator@D@2@@std@@UIP_ADDRESS_INFO@@@std@@@2@$0A@@std@@@1@$$QAU?$pair@V?$basic_string@DU?$char_traits@D@std@@V?$allocator@D@2@@std@@UIP_ADDRESS_INFO@@@1@@Z 00408000 f i IpManager.obj
 0001:000070f0       ?compare@?$char_traits@D@std@@SAHPBD0I@Z 004080f0 f i IpManager.obj
 0001:00007170       ??_GCLog@@UAEPAXI@Z        00408170 f i Log.obj
 0001:00007170       ??_ECLog@@UAEPAXI@Z        00408170 f i  CIL library: CIL module
 0001:000071a0       ??1CLog@@UAE@XZ            004081a0 f   Log.obj
 0001:000071f0       ?AddLog@CLog@@QAEXHPAD@Z   004081f0 f   Log.obj
 0001:00007310       ?Output@CLog@@QAAXW4eLogType@@PADZZ 00408310 f   Log.obj
 0001:00007520       ??_GCMemScript@@UAEPAXI@Z  00408520 f i MemScript.obj
 0001:00007520       ??_ECMemScript@@UAEPAXI@Z  00408520 f i  CIL library: CIL module
 0001:00007560       ?SetBuffer@CMemScript@@QAE_NPADH@Z 00408560 f   MemScript.obj
 0001:00007680       ?GetToken@CMemScript@@QAEHXZ 00408680 f   MemScript.obj
 0001:00007990       ??$sprintf_s@$0BAE@@@YAHAAY0BAE@DPBDZZ 00408990 f i MemScript.obj
 0001:000079b0       ?DumpExceptionFilter@@YGJPAU_EXCEPTION_POINTERS@@@Z 004089b0 f   MiniDump.obj
 0001:00007ac0       ?RecvProcessList@CProcessListInfo@@QAEXPAUPMSG_PROCESS_INFO_DATA_RECV@@H@Z 00408ac0 f   ProcessListInfo.obj
 0001:00007e60       ?SendRequest@CProcessListInfo@@QAEXHW4RequestType@@@Z 00408e60 f   ProcessListInfo.obj
 0001:00007f00       ?RecvProcessDumpRequest@CProcessListInfo@@QAEXPAUPMSG_GET_PROCESS_DUMP_RECV@@@Z 00408f00 f   ProcessListInfo.obj
 0001:00007f60       ?RecvProcessClass@CProcessListInfo@@QAEXPAUPMSG_WINDOW_CLASS_SEND@@@Z 00408f60 f   ProcessListInfo.obj
 0001:000081e0       ?RecvFile@CProcessListInfo@@QAEXPAUPMSG_FILE_RECV@@@Z 004091e0 f   ProcessListInfo.obj
 0001:00008430       ?SetInfoByIndex@CProcessListInfo@@QAEXH@Z 00409430 f   ProcessListInfo.obj
 0001:000084b0       ??0?$basic_ofstream@DU?$char_traits@D@std@@@std@@QAE@PBDHH@Z 004094b0 f i ProcessListInfo.obj
 0001:000085a0       ?close@?$basic_ofstream@DU?$char_traits@D@std@@@std@@QAEXXZ 004095a0 f i ProcessListInfo.obj
 0001:00008610       ?reserve@?$vector@UPROCESS_INFO_DATA@@V?$allocator@UPROCESS_INFO_DATA@@@std@@@std@@QAEXI@Z 00409610 f i ProcessListInfo.obj
 0001:00008710       ?allocate@?$allocator@UPROCESS_INFO_DATA@@@std@@QAEPAUPROCESS_INFO_DATA@@I@Z 00409710 f i ProcessListInfo.obj
 0001:00008770       ??$_Uninit_move@PAUPROCESS_INFO_DATA@@PAU1@V?$allocator@UPROCESS_INFO_DATA@@@std@@U1@@std@@YAPAUPROCESS_INFO_DATA@@PAU1@00AAV?$allocator@UPROCESS_INFO_DATA@@@0@0U_Nonscalar_ptr_iterator_tag@0@@Z 00409770 f i ProcessListInfo.obj
 0001:000087a0       ??0CProcessManager@@QAE@XZ 004097a0 f   ProcessManager.obj
 0001:00008880       ??_GCProcessManager@@UAEPAXI@Z 00409880 f i ProcessManager.obj
 0001:00008880       ??_ECProcessManager@@UAEPAXI@Z 00409880 f i  CIL library: CIL module
 0001:00008920       ?CheckProcess@CProcessManager@@QAE_NXZ 00409920 f   ProcessManager.obj
 0001:00008ae0       ?CheckProcessModule@CProcessManager@@QAE_NPAXPAD@Z 00409ae0 f   ProcessManager.obj
 0001:00008bc0       ?StartProcessModule@CProcessManager@@QAE_NPAXPADH@Z 00409bc0 f   ProcessManager.obj
 0001:00008d10       ?ClearProcessCache@CProcessManager@@QAEXXZ 00409d10 f   ProcessManager.obj
 0001:00008db0       ?InsertProcessCacheInfo@CProcessManager@@QAEXUPROCESS_CACHE_INFO@@@Z 00409db0 f   ProcessManager.obj
 0001:00008e40       ?AddProcessCache@CProcessManager@@QAE_NK@Z 00409e40 f   ProcessManager.obj
 0001:00008ea0       ?erase@?$_Tree@V?$_Tmap_traits@KUPROCESS_CACHE_INFO@@U?$less@K@std@@V?$allocator@U?$pair@$$CBKUPROCESS_CACHE_INFO@@@std@@@3@$0A@@std@@@std@@QAE?AV?$_Tree_iterator@V?$_Tree_val@V?$_Tmap_traits@KUPROCESS_CACHE_INFO@@U?$less@K@std@@V?$allocator@U?$pair@$$CBKUPROCESS_CACHE_INFO@@@std@@@3@$0A@@std@@@std@@@2@V?$_Tree_const_iterator@V?$_Tree_val@V?$_Tmap_traits@KUPROCESS_CACHE_INFO@@U?$less@K@std@@V?$allocator@U?$pair@$$CBKUPROCESS_CACHE_INFO@@@std@@@3@$0A@@std@@@std@@@2@@Z 00409ea0 f i ProcessManager.obj
 0001:00009100       ?find@?$_Tree@V?$_Tmap_traits@KUPROCESS_CACHE_INFO@@U?$less@K@std@@V?$allocator@U?$pair@$$CBKUPROCESS_CACHE_INFO@@@std@@@3@$0A@@std@@@std@@QAE?AV?$_Tree_iterator@V?$_Tree_val@V?$_Tmap_traits@KUPROCESS_CACHE_INFO@@U?$less@K@std@@V?$allocator@U?$pair@$$CBKUPROCESS_CACHE_INFO@@@std@@@3@$0A@@std@@@std@@@2@ABK@Z 0040a100 f i ProcessManager.obj
 0001:00009160       ?_Lrotate@?$_Tree@V?$_Tmap_traits@KUPROCESS_CACHE_INFO@@U?$less@K@std@@V?$allocator@U?$pair@$$CBKUPROCESS_CACHE_INFO@@@std@@@3@$0A@@std@@@std@@IAEXPAU_Node@?$_Tree_nod@V?$_Tmap_traits@KUPROCESS_CACHE_INFO@@U?$less@K@std@@V?$allocator@U?$pair@$$CBKUPROCESS_CACHE_INFO@@@std@@@3@$0A@@std@@@2@@Z 0040a160 f i ProcessManager.obj
 0001:000091c0       ?_Rrotate@?$_Tree@V?$_Tmap_traits@KUPROCESS_CACHE_INFO@@U?$less@K@std@@V?$allocator@U?$pair@$$CBKUPROCESS_CACHE_INFO@@@std@@@3@$0A@@std@@@std@@IAEXPAU_Node@?$_Tree_nod@V?$_Tmap_traits@KUPROCESS_CACHE_INFO@@U?$less@K@std@@V?$allocator@U?$pair@$$CBKUPROCESS_CACHE_INFO@@@std@@@3@$0A@@std@@@2@@Z 0040a1c0 f i ProcessManager.obj
 0001:00009220       ??1?$_Tree_val@V?$_Tmap_traits@V?$basic_string@DU?$char_traits@D@std@@V?$allocator@D@2@@std@@UIP_ADDRESS_INFO@@U?$less@V?$basic_string@DU?$char_traits@D@std@@V?$allocator@D@2@@std@@@2@V?$allocator@U?$pair@$$CBV?$basic_string@DU?$char_traits@D@std@@V?$allocator@D@2@@std@@UIP_ADDRESS_INFO@@@std@@@2@$0A@@std@@@std@@QAE@XZ 0040a220 f i IpManager.obj
 0001:00009220       ??1?$_Tree_val@V?$_Tmap_traits@H_NU?$less@H@std@@V?$allocator@U?$pair@$$CBH_N@std@@@2@$0A@@std@@@std@@QAE@XZ 0040a220 f i Protection.obj
 0001:00009220       ??1?$_Tree_val@V?$_Tmap_traits@KUPROCESS_CACHE_INFO@@U?$less@K@std@@V?$allocator@U?$pair@$$CBKUPROCESS_CACHE_INFO@@@std@@@3@$0A@@std@@@std@@QAE@XZ 0040a220 f i ProcessManager.obj
 0001:00009230       ?_Max@?$_Tree_val@V?$_Tmap_traits@KUPROCESS_CACHE_INFO@@U?$less@K@std@@V?$allocator@U?$pair@$$CBKUPROCESS_CACHE_INFO@@@std@@@3@$0A@@std@@@std@@SAPAU_Node@?$_Tree_nod@V?$_Tmap_traits@KUPROCESS_CACHE_INFO@@U?$less@K@std@@V?$allocator@U?$pair@$$CBKUPROCESS_CACHE_INFO@@@std@@@3@$0A@@std@@@2@PAU342@@Z 0040a230 f i ProcessManager.obj
 0001:00009250       ?erase@?$_Tree@V?$_Tmap_traits@KUPROCESS_CACHE_INFO@@U?$less@K@std@@V?$allocator@U?$pair@$$CBKUPROCESS_CACHE_INFO@@@std@@@3@$0A@@std@@@std@@QAE?AV?$_Tree_iterator@V?$_Tree_val@V?$_Tmap_traits@KUPROCESS_CACHE_INFO@@U?$less@K@std@@V?$allocator@U?$pair@$$CBKUPROCESS_CACHE_INFO@@@std@@@3@$0A@@std@@@std@@@2@V?$_Tree_const_iterator@V?$_Tree_val@V?$_Tmap_traits@KUPROCESS_CACHE_INFO@@U?$less@K@std@@V?$allocator@U?$pair@$$CBKUPROCESS_CACHE_INFO@@@std@@@3@$0A@@std@@@std@@@2@0@Z 0040a250 f i ProcessManager.obj
 0001:000092f0       ??E?$_Tree_unchecked_const_iterator@V?$_Tree_val@V?$_Tmap_traits@KUPROCESS_CACHE_INFO@@U?$less@K@std@@V?$allocator@U?$pair@$$CBKUPROCESS_CACHE_INFO@@@std@@@3@$0A@@std@@@std@@U_Iterator_base0@2@@std@@QAEAAV01@XZ 0040a2f0 f i ProcessManager.obj
 0001:00009340       ?clear@?$_Tree@V?$_Tmap_traits@KUPROCESS_CACHE_INFO@@U?$less@K@std@@V?$allocator@U?$pair@$$CBKUPROCESS_CACHE_INFO@@@std@@@3@$0A@@std@@@std@@QAEXXZ 0040a340 f i ProcessManager.obj
 0001:00009390       ?_Erase@?$_Tree@V?$_Tmap_traits@KUPROCESS_CACHE_INFO@@U?$less@K@std@@V?$allocator@U?$pair@$$CBKUPROCESS_CACHE_INFO@@@std@@@3@$0A@@std@@@std@@IAEXPAU_Node@?$_Tree_nod@V?$_Tmap_traits@KUPROCESS_CACHE_INFO@@U?$less@K@std@@V?$allocator@U?$pair@$$CBKUPROCESS_CACHE_INFO@@@std@@@3@$0A@@std@@@2@@Z 0040a390 f i ProcessManager.obj
 0001:000093d0       ?_Linsert@?$_Tree@V?$_Tmap_traits@KUPROCESS_CACHE_INFO@@U?$less@K@std@@V?$allocator@U?$pair@$$CBKUPROCESS_CACHE_INFO@@@std@@@3@$0A@@std@@@std@@QAE?AU?$pair@V?$_Tree_iterator@V?$_Tree_val@V?$_Tmap_traits@KUPROCESS_CACHE_INFO@@U?$less@K@std@@V?$allocator@U?$pair@$$CBKUPROCESS_CACHE_INFO@@@std@@@3@$0A@@std@@@std@@@std@@_N@2@PAU_Node@?$_Tree_nod@V?$_Tmap_traits@KUPROCESS_CACHE_INFO@@U?$less@K@std@@V?$allocator@U?$pair@$$CBKUPROCESS_CACHE_INFO@@@std@@@3@$0A@@std@@@2@_N@Z 0040a3d0 f i ProcessManager.obj
 0001:000094a0       ?_Insert@?$_Tree@V?$_Tmap_traits@KUPROCESS_CACHE_INFO@@U?$less@K@std@@V?$allocator@U?$pair@$$CBKUPROCESS_CACHE_INFO@@@std@@@3@$0A@@std@@@std@@IAE?AV?$_Tree_iterator@V?$_Tree_val@V?$_Tmap_traits@KUPROCESS_CACHE_INFO@@U?$less@K@std@@V?$allocator@U?$pair@$$CBKUPROCESS_CACHE_INFO@@@std@@@3@$0A@@std@@@std@@@2@_NPAU_Node@?$_Tree_nod@V?$_Tmap_traits@KUPROCESS_CACHE_INFO@@U?$less@K@std@@V?$allocator@U?$pair@$$CBKUPROCESS_CACHE_INFO@@@std@@@3@$0A@@std@@@2@1@Z 0040a4a0 f i ProcessManager.obj
 0001:000096c0       ??F?$_Tree_unchecked_const_iterator@V?$_Tree_val@V?$_Tmap_traits@KUPROCESS_CACHE_INFO@@U?$less@K@std@@V?$allocator@U?$pair@$$CBKUPROCESS_CACHE_INFO@@@std@@@3@$0A@@std@@@std@@U_Iterator_base0@2@@std@@QAEAAV01@XZ 0040a6c0 f i ProcessManager.obj
 0001:00009720       ??$_Buynode@U?$pair@KUPROCESS_CACHE_INFO@@@std@@@?$_Tree_val@V?$_Tmap_traits@KUPROCESS_CACHE_INFO@@U?$less@K@std@@V?$allocator@U?$pair@$$CBKUPROCESS_CACHE_INFO@@@std@@@3@$0A@@std@@@std@@QAEPAU_Node@?$_Tree_nod@V?$_Tmap_traits@KUPROCESS_CACHE_INFO@@U?$less@K@std@@V?$allocator@U?$pair@$$CBKUPROCESS_CACHE_INFO@@@std@@@3@$0A@@std@@@1@$$QAU?$pair@KUPROCESS_CACHE_INFO@@@1@@Z 0040a720 f i ProcessManager.obj
 0001:00009790       ??0CProtection@@QAE@XZ     0040a790 f   Protection.obj
 0001:00009950       ??_GCProtection@@UAEPAXI@Z 0040a950 f i Protection.obj
 0001:00009950       ??_ECProtection@@UAEPAXI@Z 0040a950 f i  CIL library: CIL module
 0001:000099e0       ??1?$map@H_NU?$less@H@std@@V?$allocator@U?$pair@$$CBH_N@std@@@2@@std@@QAE@XZ 0040a9e0 f i Protection.obj
 0001:00009a40       ?offline_activation@CProtection@@QAEXPAD@Z 0040aa40 f   Protection.obj
 0001:00009af0       ?clear@?$_Tree@V?$_Tmap_traits@H_NU?$less@H@std@@V?$allocator@U?$pair@$$CBH_N@std@@@2@$0A@@std@@@std@@QAEXXZ 0040aaf0 f i Protection.obj
 0001:00009b40       ?find@?$_Tree@V?$_Tmap_traits@H_NU?$less@H@std@@V?$allocator@U?$pair@$$CBH_N@std@@@2@$0A@@std@@@std@@QAE?AV?$_Tree_iterator@V?$_Tree_val@V?$_Tmap_traits@H_NU?$less@H@std@@V?$allocator@U?$pair@$$CBH_N@std@@@2@$0A@@std@@@std@@@2@ABH@Z 0040ab40 f i Protection.obj
 0001:00009ba0       ?_Erase@?$_Tree@V?$_Tmap_traits@H_NU?$less@H@std@@V?$allocator@U?$pair@$$CBH_N@std@@@2@$0A@@std@@@std@@IAEXPAU_Node@?$_Tree_nod@V?$_Tmap_traits@H_NU?$less@H@std@@V?$allocator@U?$pair@$$CBH_N@std@@@2@$0A@@std@@@2@@Z 0040aba0 f i Protection.obj
 0001:00009be0       ?erase@?$_Tree@V?$_Tmap_traits@H_NU?$less@H@std@@V?$allocator@U?$pair@$$CBH_N@std@@@2@$0A@@std@@@std@@QAE?AV?$_Tree_iterator@V?$_Tree_val@V?$_Tmap_traits@H_NU?$less@H@std@@V?$allocator@U?$pair@$$CBH_N@std@@@2@$0A@@std@@@std@@@2@V?$_Tree_const_iterator@V?$_Tree_val@V?$_Tmap_traits@H_NU?$less@H@std@@V?$allocator@U?$pair@$$CBH_N@std@@@2@$0A@@std@@@std@@@2@0@Z 0040abe0 f i Protection.obj
 0001:00009c80       ?erase@?$_Tree@V?$_Tmap_traits@H_NU?$less@H@std@@V?$allocator@U?$pair@$$CBH_N@std@@@2@$0A@@std@@@std@@QAE?AV?$_Tree_iterator@V?$_Tree_val@V?$_Tmap_traits@H_NU?$less@H@std@@V?$allocator@U?$pair@$$CBH_N@std@@@2@$0A@@std@@@std@@@2@V?$_Tree_const_iterator@V?$_Tree_val@V?$_Tmap_traits@H_NU?$less@H@std@@V?$allocator@U?$pair@$$CBH_N@std@@@2@$0A@@std@@@std@@@2@@Z 0040ac80 f i Protection.obj
 0001:00009ee0       ?_Lrotate@?$_Tree@V?$_Tmap_traits@H_NU?$less@H@std@@V?$allocator@U?$pair@$$CBH_N@std@@@2@$0A@@std@@@std@@IAEXPAU_Node@?$_Tree_nod@V?$_Tmap_traits@H_NU?$less@H@std@@V?$allocator@U?$pair@$$CBH_N@std@@@2@$0A@@std@@@2@@Z 0040aee0 f i Protection.obj
 0001:00009f40       ?_Rrotate@?$_Tree@V?$_Tmap_traits@H_NU?$less@H@std@@V?$allocator@U?$pair@$$CBH_N@std@@@2@$0A@@std@@@std@@IAEXPAU_Node@?$_Tree_nod@V?$_Tmap_traits@H_NU?$less@H@std@@V?$allocator@U?$pair@$$CBH_N@std@@@2@$0A@@std@@@2@@Z 0040af40 f i Protection.obj
 0001:00009fa0       ?_Max@?$_Tree_val@V?$_Tmap_traits@H_NU?$less@H@std@@V?$allocator@U?$pair@$$CBH_N@std@@@2@$0A@@std@@@std@@SAPAU_Node@?$_Tree_nod@V?$_Tmap_traits@H_NU?$less@H@std@@V?$allocator@U?$pair@$$CBH_N@std@@@2@$0A@@std@@@2@PAU342@@Z 0040afa0 f i Protection.obj
 0001:00009fc0       ??E?$_Tree_unchecked_const_iterator@V?$_Tree_val@V?$_Tmap_traits@H_NU?$less@H@std@@V?$allocator@U?$pair@$$CBH_N@std@@@2@$0A@@std@@@std@@U_Iterator_base0@2@@std@@QAEAAV01@XZ 0040afc0 f i Protection.obj
 0001:0000a010       ?_Linsert@?$_Tree@V?$_Tmap_traits@H_NU?$less@H@std@@V?$allocator@U?$pair@$$CBH_N@std@@@2@$0A@@std@@@std@@QAE?AU?$pair@V?$_Tree_iterator@V?$_Tree_val@V?$_Tmap_traits@H_NU?$less@H@std@@V?$allocator@U?$pair@$$CBH_N@std@@@2@$0A@@std@@@std@@@std@@_N@2@PAU_Node@?$_Tree_nod@V?$_Tmap_traits@H_NU?$less@H@std@@V?$allocator@U?$pair@$$CBH_N@std@@@2@$0A@@std@@@2@_N@Z 0040b010 f i Protection.obj
 0001:0000a0e0       ?_Insert@?$_Tree@V?$_Tmap_traits@H_NU?$less@H@std@@V?$allocator@U?$pair@$$CBH_N@std@@@2@$0A@@std@@@std@@IAE?AV?$_Tree_iterator@V?$_Tree_val@V?$_Tmap_traits@H_NU?$less@H@std@@V?$allocator@U?$pair@$$CBH_N@std@@@2@$0A@@std@@@std@@@2@_NPAU_Node@?$_Tree_nod@V?$_Tmap_traits@H_NU?$less@H@std@@V?$allocator@U?$pair@$$CBH_N@std@@@2@$0A@@std@@@2@1@Z 0040b0e0 f i Protection.obj
 0001:0000a300       ??F?$_Tree_unchecked_const_iterator@V?$_Tree_val@V?$_Tmap_traits@H_NU?$less@H@std@@V?$allocator@U?$pair@$$CBH_N@std@@@2@$0A@@std@@@std@@U_Iterator_base0@2@@std@@QAEAAV01@XZ 0040b300 f i Protection.obj
 0001:0000a360       ??$_Buynode@U?$pair@H_N@std@@@?$_Tree_val@V?$_Tmap_traits@H_NU?$less@H@std@@V?$allocator@U?$pair@$$CBH_N@std@@@2@$0A@@std@@@std@@QAEPAU_Node@?$_Tree_nod@V?$_Tmap_traits@H_NU?$less@H@std@@V?$allocator@U?$pair@$$CBH_N@std@@@2@$0A@@std@@@1@$$QAU?$pair@H_N@1@@Z 0040b360 f i Protection.obj
 0001:0000a3d0       ??_ECQueue@@UAEPAXI@Z      0040b3d0 f i  CIL library: CIL module
 0001:0000a3d0       ??_GCQueue@@UAEPAXI@Z      0040b3d0 f i Queue.obj
 0001:0000a460       ??1?$queue@UQUEUE_INFO@@V?$deque@UQUEUE_INFO@@V?$allocator@UQUEUE_INFO@@@std@@@std@@@std@@QAE@XZ 0040b460 f i Queue.obj
 0001:0000a480       ??1CQueue@@UAE@XZ          0040b480 f   Queue.obj
 0001:0000a500       ?ClearQueue@CQueue@@QAEXXZ 0040b500 f   Queue.obj
 0001:0000a610       ?_Tidy@?$deque@UQUEUE_INFO@@V?$allocator@UQUEUE_INFO@@@std@@@std@@IAEXXZ 0040b610 f i Queue.obj
 0001:0000a680       ?begin@?$deque@UQUEUE_INFO@@V?$allocator@UQUEUE_INFO@@@std@@@std@@QAE?AV?$_Deque_iterator@UQUEUE_INFO@@V?$allocator@UQUEUE_INFO@@@std@@@2@XZ 0040b680 f i Queue.obj
 0001:0000a6a0       ?_Growmap@?$deque@UQUEUE_INFO@@V?$allocator@UQUEUE_INFO@@@std@@@std@@IAEXI@Z 0040b6a0 f i Queue.obj
 0001:0000a830       ??_ECReadFiles@@UAEPAXI@Z  0040b830 f i  CIL library: CIL module
 0001:0000a830       ??_GCReadFiles@@UAEPAXI@Z  0040b830 f i ReadFiles.obj
 0001:0000a860       ??1CReadFiles@@UAE@XZ      0040b860 f   ReadFiles.obj
 0001:0000a8d0       ?DumpList@CReadFiles@@QAEXPAD@Z 0040b8d0 f   ReadFiles.obj
 0001:0000ab80       ?ChecksumList@CReadFiles@@QAEXPAD@Z 0040bb80 f   ReadFiles.obj
 0001:0000acf0       ?InternalList@CReadFiles@@QAEXPAD@Z 0040bcf0 f   ReadFiles.obj
 0001:0000af10       ?WindowList@CReadFiles@@QAEXPAD@Z 0040bf10 f   ReadFiles.obj
 0001:0000b060       ?UpdateInternalList@CReadFiles@@QAEXXZ 0040c060 f   ReadFiles.obj
 0001:0000b320       ?push_back@?$vector@UCSUM_LIST_INFO@@V?$allocator@UCSUM_LIST_INFO@@@std@@@std@@QAEXABUCSUM_LIST_INFO@@@Z 0040c320 f i ReadFiles.obj
 0001:0000b380       ?clear@?$vector@UCSUM_LIST_INFO@@V?$allocator@UCSUM_LIST_INFO@@@std@@@std@@QAEXXZ 0040c380 f i ReadFiles.obj
 0001:0000b3d0       ?clear@?$vector@UITRN_LIST_INFO@@V?$allocator@UITRN_LIST_INFO@@@std@@@std@@QAEXXZ 0040c3d0 f i ReadFiles.obj
 0001:0000b420       ?push_back@?$vector@UWNDW_LIST_INFO@@V?$allocator@UWNDW_LIST_INFO@@@std@@@std@@QAEXABUWNDW_LIST_INFO@@@Z 0040c420 f i ReadFiles.obj
 0001:0000b480       ?clear@?$vector@UWNDW_LIST_INFO@@V?$allocator@UWNDW_LIST_INFO@@@std@@@std@@QAEXXZ 0040c480 f i ReadFiles.obj
 0001:0000b4d0       ?_Reserve@?$vector@UDUMP_LIST_INFO@@V?$allocator@UDUMP_LIST_INFO@@@std@@@std@@IAEXI@Z 0040c4d0 f i ReadFiles.obj
 0001:0000b540       ?_Reserve@?$vector@UCSUM_LIST_INFO@@V?$allocator@UCSUM_LIST_INFO@@@std@@@std@@IAEXI@Z 0040c540 f i ReadFiles.obj
 0001:0000b5b0       ?_Reserve@?$vector@UITRN_LIST_INFO@@V?$allocator@UITRN_LIST_INFO@@@std@@@std@@IAEXI@Z 0040c5b0 f i ReadFiles.obj
 0001:0000b620       ?_Reserve@?$vector@UWNDW_LIST_INFO@@V?$allocator@UWNDW_LIST_INFO@@@std@@@std@@IAEXI@Z 0040c620 f i ReadFiles.obj
 0001:0000b690       ?reserve@?$vector@UDUMP_LIST_INFO@@V?$allocator@UDUMP_LIST_INFO@@@std@@@std@@QAEXI@Z 0040c690 f i ReadFiles.obj
 0001:0000b780       ?reserve@?$vector@UCSUM_LIST_INFO@@V?$allocator@UCSUM_LIST_INFO@@@std@@@std@@QAEXI@Z 0040c780 f i ReadFiles.obj
 0001:0000b870       ?reserve@?$vector@UITRN_LIST_INFO@@V?$allocator@UITRN_LIST_INFO@@@std@@@std@@QAEXI@Z 0040c870 f i ReadFiles.obj
 0001:0000b960       ?reserve@?$vector@UWNDW_LIST_INFO@@V?$allocator@UWNDW_LIST_INFO@@@std@@@std@@QAEXI@Z 0040c960 f i ReadFiles.obj
 0001:0000ba50       ?allocate@?$allocator@UDUMP_LIST_INFO@@@std@@QAEPAUDUMP_LIST_INFO@@I@Z 0040ca50 f i ReadFiles.obj
 0001:0000bab0       ?allocate@?$allocator@UCSUM_LIST_INFO@@@std@@QAEPAUCSUM_LIST_INFO@@I@Z 0040cab0 f i ReadFiles.obj
 0001:0000bb10       ?allocate@?$allocator@UITRN_LIST_INFO@@@std@@QAEPAUITRN_LIST_INFO@@I@Z 0040cb10 f i ReadFiles.obj
 0001:0000bb70       ?allocate@?$allocator@UWNDW_LIST_INFO@@@std@@QAEPAUWNDW_LIST_INFO@@I@Z 0040cb70 f i ReadFiles.obj
 0001:0000bbd0       ??$_Uninit_move@PAUDUMP_LIST_INFO@@PAU1@V?$allocator@UDUMP_LIST_INFO@@@std@@U1@@std@@YAPAUDUMP_LIST_INFO@@PAU1@00AAV?$allocator@UDUMP_LIST_INFO@@@0@0U_Nonscalar_ptr_iterator_tag@0@@Z 0040cbd0 f i ReadFiles.obj
 0001:0000bc00       ??$_Uninit_move@PAUCSUM_LIST_INFO@@PAU1@V?$allocator@UCSUM_LIST_INFO@@@std@@U1@@std@@YAPAUCSUM_LIST_INFO@@PAU1@00AAV?$allocator@UCSUM_LIST_INFO@@@0@0U_Nonscalar_ptr_iterator_tag@0@@Z 0040cc00 f i ReadFiles.obj
 0001:0000bc30       ??$_Uninit_move@PAUITRN_LIST_INFO@@PAU1@V?$allocator@UITRN_LIST_INFO@@@std@@U1@@std@@YAPAUITRN_LIST_INFO@@PAU1@00AAV?$allocator@UITRN_LIST_INFO@@@0@0U_Nonscalar_ptr_iterator_tag@0@@Z 0040cc30 f i ReadFiles.obj
 0001:0000bc60       ??$_Uninit_move@PAUWNDW_LIST_INFO@@PAU1@V?$allocator@UWNDW_LIST_INFO@@@std@@U1@@std@@YAPAUWNDW_LIST_INFO@@PAU1@00AAV?$allocator@UWNDW_LIST_INFO@@@0@0U_Nonscalar_ptr_iterator_tag@0@@Z 0040cc60 f i ReadFiles.obj
 0001:0000bc90       ?Init@CScreenShot@@QAEXXZ  0040cc90 f   ScreenShot.obj
 0001:0000bd00       ?RecvInfo@CScreenShot@@QAEXPAUPMSG_SCREEN_SHOT_SEND@@H@Z 0040cd00 f   ScreenShot.obj
 0001:0000beb0       ?SaveScreen@CScreenShot@@QAEXPAD0H@Z 0040ceb0 f   ScreenShot.obj
 0001:0000c290       ??4?$vector@EV?$allocator@E@std@@@std@@QAEAAV01@ABV01@@Z 0040d290 f i ScreenShot.obj
 0001:0000c390       ?_Buy@?$vector@EV?$allocator@E@std@@@std@@IAE_NI@Z 0040d390 f i ScreenShot.obj
 0001:0000c3d0       ?reserve@?$vector@EV?$allocator@E@std@@@std@@QAEXI@Z 0040d3d0 f i ScreenShot.obj
 0001:0000c440       ?allocate@?$allocator@D@std@@QAEPADI@Z 0040d440 f i pugixml.obj
 0001:0000c440       ?allocate@?$allocator@E@std@@QAEPAEI@Z 0040d440 f i ScreenShot.obj
 0001:0000c490       ??$AtlConvAllocMemory@_W@ATL@@YAXPAPA_WHPA_WH@Z 0040d490 f i ScreenShot.obj
 0001:0000c520       ?AtlThrowLastWin32@ATL@@YGXXZ 0040d520 f i ScreenShot.obj
 0001:0000c540       ?Init@?$CA2WEX@$0IA@@ATL@@AAEXPBDI@Z 0040d540 f i ScreenShot.obj
 0001:0000c600       ??1?$CA2WEX@$0IA@@ATL@@QAE@XZ 0040d600 f i ScreenShot.obj
 0001:0000c620       ?AtlFindStringResourceInstance@ATL@@YAPAUHINSTANCE__@@IG@Z 0040d620 f i ScreenShot.obj
 0001:0000c6a0       ?_AtlGetStringResourceImage@ATL@@YAPBUATLSTRINGRESOURCEIMAGE@1@PAUHINSTANCE__@@PAUHRSRC__@@I@Z 0040d6a0 f i ScreenShot.obj
 0001:0000c700       ?ConvertToBaseType@?$ChTraitsCRT@_W@ATL@@SAXPA_WHPB_WH@Z 0040d700 f i ScreenShot.obj
 0001:0000c7d0       ?LoadStringA@?$CStringT@_WV?$StrTraitATL@_WV?$ChTraitsCRT@_W@ATL@@@ATL@@@ATL@@QAEHPAUHINSTANCE__@@I@Z 0040d7d0 f i ScreenShot.obj
 0001:0000c870       ?Empty@?$CSimpleStringT@_W$0A@@ATL@@QAEXXZ 0040d870 f i ScreenShot.obj
 0001:0000c8d0       ?Fork@?$CSimpleStringT@_W$0A@@ATL@@AAEXH@Z 0040d8d0 f i ScreenShot.obj
 0001:0000c960       ?Reallocate@?$CSimpleStringT@_W$0A@@ATL@@AAEXH@Z 0040d960 f i ScreenShot.obj
 0001:0000c990       ?PrepareWrite2@?$CSimpleStringT@_W$0A@@ATL@@AAEXH@Z 0040d990 f i ScreenShot.obj
 0001:0000c9f0       ?SetString@?$CSimpleStringT@_W$0A@@ATL@@QAEXPB_WH@Z 0040d9f0 f i ScreenShot.obj
 0001:0000caa0       ?CloneData@?$CSimpleStringT@_W$0A@@ATL@@CAPAUCStringData@2@PAU32@@Z 0040daa0 f i ScreenShot.obj
 0001:0000cb10       ?ThrowMemoryException@?$CSimpleStringT@_W$0A@@ATL@@KAXXZ 0040db10 f i ScreenShot.obj
 0001:0000cb20       ??0?$CSimpleStringT@_W$0A@@ATL@@QAE@PB_WHPAUIAtlStringMgr@1@@Z 0040db20 f i ScreenShot.obj
 0001:0000cb80       ?Mid@?$CStringT@_WV?$StrTraitATL@_WV?$ChTraitsCRT@_W@ATL@@@ATL@@@ATL@@QBE?AV12@HH@Z 0040db80 f i ScreenShot.obj
 0001:0000cc30       ?Tokenize@?$CStringT@_WV?$StrTraitATL@_WV?$ChTraitsCRT@_W@ATL@@@ATL@@@ATL@@QBE?AV12@PB_WAAH@Z 0040dc30 f i ScreenShot.obj
 0001:0000cd00       ??1?$CSimpleStringT@_W$0A@@ATL@@QAE@XZ 0040dd00 f i ScreenShot.obj
 0001:0000cd00       ??1?$CStringT@_WV?$StrTraitATL@_WV?$ChTraitsCRT@_W@ATL@@@ATL@@@ATL@@QAE@XZ 0040dd00 f i ScreenShot.obj
 0001:0000cd20       ?FindCodecForExtension@CImage@ATL@@CA?AU_GUID@@PBDPBVImageCodecInfo@Gdiplus@@I@Z 0040dd20 f i ScreenShot.obj
 0001:0000d080       ?FindCodecForFileType@CImage@ATL@@CA?AU_GUID@@ABU3@PBVImageCodecInfo@Gdiplus@@I@Z 0040e080 f i ScreenShot.obj
 0001:0000d160       _IsEqualGUID               0040e160 f i ScreenShot.obj
 0001:0000d1d0       ?Save@CImage@ATL@@QBEJPBDABU_GUID@@@Z 0040e1d0 f i ScreenShot.obj
 0001:0000d460       ?DrawString@Graphics@Gdiplus@@QAE?AW4Status@2@PB_WHPBVFont@2@ABVPointF@2@PBVBrush@2@@Z 0040e460 f i ScreenShot.obj
 0001:0000d4c0       ??_GSolidBrush@Gdiplus@@UAEPAXI@Z 0040e4c0 f i ScreenShot.obj
 0001:0000d4c0       ??_GBrush@Gdiplus@@UAEPAXI@Z 0040e4c0 f i ScreenShot.obj
 0001:0000d4c0       ??_EBrush@Gdiplus@@UAEPAXI@Z 0040e4c0 f i  CIL library: CIL module
 0001:0000d4c0       ??_ESolidBrush@Gdiplus@@UAEPAXI@Z 0040e4c0 f i  CIL library: CIL module
 0001:0000d4f0       ?Clone@Brush@Gdiplus@@UBEPAV12@XZ 0040e4f0 f i ScreenShot.obj
 0001:0000d550       ??0SolidBrush@Gdiplus@@QAE@ABVColor@1@@Z 0040e550 f i ScreenShot.obj
 0001:0000d590       ??0Font@Gdiplus@@QAE@PBVFontFamily@1@MHW4Unit@1@@Z 0040e590 f i ScreenShot.obj
 0001:0000d5d0       ?swprintf@@YAHPA_WPB_WZZ   0040e5d0 f i ScreenShot.obj
 0001:0000d5f0       ?Init@CInitGDIPlus@CImage@ATL@@QAE_NXZ 0040e5f0 f i ScreenShot.obj
 0001:0000d670       ?UpdateBitmapInfo@CImage@ATL@@AAEXW4DIBOrientation@12@@Z 0040e670 f i ScreenShot.obj
 0001:0000d750       ?CreateEx@CImage@ATL@@QAEHHHHKPBKK@Z 0040e750 f i ScreenShot.obj
 0001:0000d870       ??1?$CAtlSafeAllocBufferManager@VCCRTAllocator@ATL@@@_ATL_SAFE_ALLOCA_IMPL@ATL@@QAE@XZ 0040e870 f i ScreenShot.obj
 0001:0000d8a0       ?_AtlVerifyStackAvailable@_ATL_SAFE_ALLOCA_IMPL@ATL@@YA_NK@Z 0040e8a0 f i ScreenShot.obj
 0001:0000d960       ??$AtlAdd@K@ATL@@YAJPAKKK@Z 0040e960 f i ScreenShot.obj
 0001:0000d990       ?Allocate@?$CAtlSafeAllocBufferManager@VCCRTAllocator@ATL@@@_ATL_SAFE_ALLOCA_IMPL@ATL@@QAEPAXK@Z 0040e990 f i ScreenShot.obj
 0001:0000d9c0       ?GetDC@CImage@ATL@@QBEPAUHDC__@@XZ 0040e9c0 f i ScreenShot.obj
 0001:0000da10       ?ReleaseDC@CImage@ATL@@QBEXXZ 0040ea10 f i ScreenShot.obj
 0001:0000da60       ?AtlThrowImpl@ATL@@YGXJ@Z  0040ea60 f i ScreenShot.obj
 0001:0000da80       ??0Bitmap@Gdiplus@@QAE@HHHHPAE@Z 0040ea80 f i ScreenShot.obj
 0001:0000dac0       ??_EBitmap@Gdiplus@@UAEPAXI@Z 0040eac0 f i  CIL library: CIL module
 0001:0000dac0       ??_GBitmap@Gdiplus@@UAEPAXI@Z 0040eac0 f i ScreenShot.obj
 0001:0000dac0       ??_EImage@Gdiplus@@UAEPAXI@Z 0040eac0 f i  CIL library: CIL module
 0001:0000dac0       ??_GImage@Gdiplus@@UAEPAXI@Z 0040eac0 f i ScreenShot.obj
 0001:0000daf0       ?Clone@Image@Gdiplus@@UAEPAV12@XZ 0040eaf0 f i ScreenShot.obj
 0001:0000db40       ?CreateFromGdiplusBitmap@CImage@ATL@@AAEJAAVBitmap@Gdiplus@@@Z 0040eb40 f i ScreenShot.obj
 0001:0000dfd0       ?Load@CImage@ATL@@QAEJPAUIStream@@@Z 0040efd0 f i ScreenShot.obj
 0001:0000e040       ?Destroy@CImage@ATL@@QAEXXZ 0040f040 f i ScreenShot.obj
 0001:0000e080       ?ReleaseGDIPlus@CInitGDIPlus@CImage@ATL@@QAEXXZ 0040f080 f i ScreenShot.obj
 0001:0000e0b0       ??1CImage@ATL@@UAE@XZ      0040f0b0 f i ScreenShot.obj
 0001:0000e140       ??_GCImage@ATL@@UAEPAXI@Z  0040f140 f i ScreenShot.obj
 0001:0000e140       ??_ECImage@ATL@@UAEPAXI@Z  0040f140 f i  CIL library: CIL module
 0001:0000e170       ??0CImage@ATL@@QAE@XZ      0040f170 f i ScreenShot.obj
 0001:0000e1c0       ??0CScreenShow@@QAE@XZ     0040f1c0 f   ScreenShow.obj
 0001:0000e2d0       ??_ECScreenShow@@UAEPAXI@Z 0040f2d0 f i  CIL library: CIL module
 0001:0000e2d0       ??_GCScreenShow@@UAEPAXI@Z 0040f2d0 f i ScreenShow.obj
 0001:0000e330       ?RecvInfo@CScreenShow@@QAEXPAUPMSG_SCREEN_RECV@@H@Z 0040f330 f   ScreenShow.obj
 0001:0000e550       ?DrawScreen@CScreenShow@@SAXPAUHWND__@@PAUHDC__@@@Z 0040f550 f   ScreenShow.obj
 0001:0000e820       ?SendScreenState@CScreenShow@@QAEXHH@Z 0040f820 f   ScreenShow.obj
 0001:0000e8c0       ?RecvScreenData@CScreenShow@@QAEXPAUPMSG_SCREENDATA_RECV@@H@Z 0040f8c0 f   ScreenShow.obj
 0001:0000ea00       ?StretchBlt@CImage@ATL@@QBEHPAUHDC__@@HHHHK@Z 0040fa00 f i ScreenShow.obj
 0001:0000ea70       ?Draw@CImage@ATL@@QBEHPAUHDC__@@HHHHHHHH@Z 0040fa70 f i ScreenShow.obj
 0001:0000eb70       ?Load@CImage@ATL@@QAEJPBD@Z 0040fb70 f i ScreenShow.obj
 0001:0000ec70       ??0CServerDisplayer@@QAE@XZ 0040fc70 f   ServerDisplayer.obj
 0001:0000ed20       ??_GCServerDisplayer@@UAEPAXI@Z 0040fd20 f i ServerDisplayer.obj
 0001:0000ed20       ??_ECServerDisplayer@@UAEPAXI@Z 0040fd20 f i  CIL library: CIL module
 0001:0000ed70       ?Init@CServerDisplayer@@QAEXPAUHWND__@@@Z 0040fd70 f   ServerDisplayer.obj
 0001:0000ee00       ?Run@CServerDisplayer@@QAEXXZ 0040fe00 f   ServerDisplayer.obj
 0001:0000eee0       ?PaintAllInfo@CServerDisplayer@@QAEXXZ 0040fee0 f   ServerDisplayer.obj
 0001:0000f040       ?LogTextPaint@CServerDisplayer@@QAEXXZ 00410040 f   ServerDisplayer.obj
 0001:0000f190       ?LogAddText@CServerDisplayer@@QAEXW4eLogColor@@PADH@Z 00410190 f   ServerDisplayer.obj
 0001:0000f220       ??_ECServerInfo@@UAEPAXI@Z 00410220 f i  CIL library: CIL module
 0001:0000f220       ??_GCServerInfo@@UAEPAXI@Z 00410220 f i ServerInfo.obj
 0001:0000f250       ?ReadInit@CServerInfo@@QAEXXZ 00410250 f   ServerInfo.obj
 0001:0000f320       ?ReadDumpList@CServerInfo@@QAEXXZ 00410320 f   ServerInfo.obj
 0001:0000f340       ?ReadWindowList@CServerInfo@@QAEXXZ 00410340 f   ServerInfo.obj
 0001:0000f360       ?ReadBlackList@CServerInfo@@QAEXXZ 00410360 f   ServerInfo.obj
 0001:0000f380       ?ReadStartupInfo@CServerInfo@@QAEXPAD0@Z 00410380 f   ServerInfo.obj
 0001:0000f440       ?ReadConfig@CServerInfo@@QAEXPAD0@Z 00410440 f   ServerInfo.obj
 0001:0000f790       ??0CSocketManager@@QAE@XZ  00410790 f   SocketManager.obj
 0001:0000f900       ??_GCSocketManager@@UAEPAXI@Z 00410900 f i SocketManager.obj
 0001:0000f900       ??_ECSocketManager@@UAEPAXI@Z 00410900 f i  CIL library: CIL module
 0001:0000f930       ??1CSocketManager@@UAE@XZ  00410930 f   SocketManager.obj
 0001:0000f9e0       ?Start@CSocketManager@@QAE_NG@Z 004109e0 f   SocketManager.obj
 0001:0000fa40       ?Clean@CSocketManager@@QAEXXZ 00410a40 f   SocketManager.obj
 0001:0000fb00       ?CreateListenSocket@CSocketManager@@QAE_NXZ 00410b00 f   SocketManager.obj
 0001:0000fc00       ?CreateCompletionPort@CSocketManager@@QAE_NXZ 00410c00 f   SocketManager.obj
 0001:0000fc70       ?CreateAcceptThread@CSocketManager@@QAE_NXZ 00410c70 f   SocketManager.obj
 0001:0000fce0       ?CreateWorkerThread@CSocketManager@@QAE_NXZ 00410ce0 f   SocketManager.obj
 0001:0000fd90       ?CreateServerQueue@CSocketManager@@QAE_NXZ 00410d90 f   SocketManager.obj
 0001:0000fe30       ?DataRecv@CSocketManager@@QAE_NHPAUIO_MAIN_BUFFER@@@Z 00410e30 f   SocketManager.obj
 0001:00010120       ?DataSend@CSocketManager@@QAE_NHPAEH@Z 00411120 f   SocketManager.obj
 0001:000103a0       ?Disconnect@CSocketManager@@QAEXH@Z 004113a0 f   SocketManager.obj
 0001:00010450       ?OnRecv@CSocketManager@@QAEXHKPAUIO_RECV_CONTEXT@@@Z 00411450 f   SocketManager.obj
 0001:00010570       ?OnSend@CSocketManager@@QAEXHKPAUIO_SEND_CONTEXT@@@Z 00411570 f   SocketManager.obj
 0001:00010730       ?ServerAcceptCondition@CSocketManager@@SGHPAU_WSABUF@@0PAU_QualityOfService@@100PAIPAV1@@Z 00411730 f   SocketManager.obj
 0001:00010760       ?ServerAcceptThread@CSocketManager@@SGKPAV1@@Z 00411760 f   SocketManager.obj
 0001:000108d0       ?ServerWorkerThread@CSocketManager@@SGKPAV1@@Z 004118d0 f   SocketManager.obj
 0001:000109c0       ?ServerQueueThread@CSocketManager@@SGKPAV1@@Z 004119c0 f   SocketManager.obj
 0001:00010af0       ?copy_to_clipboard@@YAXV?$basic_string@DU?$char_traits@D@std@@V?$allocator@D@2@@std@@@Z 00411af0 f   Util.obj
 0001:00010b60       ?CheckListBox@@YA_NPAUHWND__@@HPAD@Z 00411b60 f   Util.obj
 0001:00010c50       ?get_count_hwid_by_ip@@YAHPAD@Z 00411c50 f   Util.obj
 0001:00010cc0       ?split@@YA?AV?$vector@V?$basic_string@DU?$char_traits@D@std@@V?$allocator@D@2@@std@@V?$allocator@V?$basic_string@DU?$char_traits@D@std@@V?$allocator@D@2@@std@@@2@@std@@ABV?$basic_string@DU?$char_traits@D@std@@V?$allocator@D@2@@2@D@Z 00411cc0 f   Util.obj
 0001:00010fe0       ?validateIP@@YA_NV?$basic_string@DU?$char_traits@D@std@@V?$allocator@D@2@@std@@@Z 00411fe0 f   Util.obj
 0001:00011260       ?MsgBox@@YAXPADZZ          00412260 f   Util.obj
 0001:000112d0       ?ErrorMessageBox@@YAXPADZZ 004122d0 f   Util.obj
 0001:00011350       ?LogAdd@@YAXW4eLogColor@@PADZZ 00412350 f   Util.obj
 0001:00011410       ?TimeoutProc@@YAXXZ        00412410 f   Util.obj
 0001:00011470       ?GetUserCount@@YAHXZ       00412470 f   Util.obj
 0001:00011570       ?GetIpByIndex@@YAPADH@Z    00412570 f   Util.obj
 0001:000115d0       ?GetHwidByIndex@@YAPADH@Z  004125d0 f   Util.obj
 0001:00011630       ?GetFreeClientIndex@@YAHXZ 00412630 f   Util.obj
 0001:000116c0       ?SearchFreeClientIndex@@YAHPAHHHK@Z 004126c0 f   Util.obj
 0001:00011740       ?RemoveCharacter@@YAPADPADD@Z 00412740 f   Util.obj
 0001:000117a0       ?push_back@?$vector@V?$basic_string@DU?$char_traits@D@std@@V?$allocator@D@2@@std@@V?$allocator@V?$basic_string@DU?$char_traits@D@std@@V?$allocator@D@2@@std@@@2@@std@@QAEX$$QAV?$basic_string@DU?$char_traits@D@std@@V?$allocator@D@2@@2@@Z 004127a0 f i Util.obj
 0001:00011850       ??1?$vector@V?$basic_string@DU?$char_traits@D@std@@V?$allocator@D@2@@std@@V?$allocator@V?$basic_string@DU?$char_traits@D@std@@V?$allocator@D@2@@std@@@2@@std@@QAE@XZ 00412850 f i Util.obj
 0001:00011890       ?find@?$basic_string@DU?$char_traits@D@std@@V?$allocator@D@2@@std@@QBEIPBDII@Z 00412890 f i Util.obj
 0001:00011930       ?find_first_not_of@?$basic_string@DU?$char_traits@D@std@@V?$allocator@D@2@@std@@QBEIPBDII@Z 00412930 f i Util.obj
 0001:000119a0       ?_Reserve@?$vector@V?$basic_string@DU?$char_traits@D@std@@V?$allocator@D@2@@std@@V?$allocator@V?$basic_string@DU?$char_traits@D@std@@V?$allocator@D@2@@std@@@2@@std@@IAEXI@Z 004129a0 f i Util.obj
 0001:00011a20       ?reserve@?$vector@V?$basic_string@DU?$char_traits@D@std@@V?$allocator@D@2@@std@@V?$allocator@V?$basic_string@DU?$char_traits@D@std@@V?$allocator@D@2@@std@@@2@@std@@QAEXI@Z 00412a20 f i Util.obj
 0001:00011b30       ?_Destroy@?$vector@V?$basic_string@DU?$char_traits@D@std@@V?$allocator@D@2@@std@@V?$allocator@V?$basic_string@DU?$char_traits@D@std@@V?$allocator@D@2@@std@@@2@@std@@IAEXPAV?$basic_string@DU?$char_traits@D@std@@V?$allocator@D@2@@2@0@Z 00412b30 f i Util.obj
 0001:00011b70       ?allocate@?$allocator@V?$basic_string@DU?$char_traits@D@std@@V?$allocator@D@2@@std@@@std@@QAEPAV?$basic_string@DU?$char_traits@D@std@@V?$allocator@D@2@@2@I@Z 00412b70 f i Util.obj
 0001:00011bd0       ??$sprintf_s@$09@@YAHAAY09DPBDZZ 00412bd0 f i Util.obj
 0001:00011bf0       ??$_Uninit_move@PAV?$basic_string@DU?$char_traits@D@std@@V?$allocator@D@2@@std@@PAV12@V?$allocator@V?$basic_string@DU?$char_traits@D@std@@V?$allocator@D@2@@std@@@2@V12@@std@@YAPAV?$basic_string@DU?$char_traits@D@std@@V?$allocator@D@2@@0@PAV10@00AAV?$allocator@V?$basic_string@DU?$char_traits@D@std@@V?$allocator@D@2@@std@@@0@0U_Nonscalar_ptr_iterator_tag@0@@Z 00412bf0 f i Util.obj
 0001:00011cb0       ?stoi@std@@YAHABV?$basic_string@DU?$char_traits@D@std@@V?$allocator@D@2@@1@PAIH@Z 00412cb0 f i Util.obj
 0001:00011d1a       ??1_Fac_node@std@@QAE@XZ   00412d1a f i msvcprt:locale0_implib.obj
 0001:00011d30       ?_Facet_Register@facet@locale@std@@CAXPAV123@@Z 00412d30 f   msvcprt:locale0_implib.obj
 0001:00011d5a       ??1_Fac_tidy_reg_t@std@@QAE@XZ 00412d5a f i msvcprt:locale0_implib.obj
 0001:00011daa       ?xsputn@?$basic_streambuf@DU?$char_traits@D@std@@@std@@MAE_JPBD_J@Z 00412daa f   msvcprt:MSVCP100.dll
 0001:00011db0       ?showmanyc@?$basic_streambuf@DU?$char_traits@D@std@@@std@@MAE_JXZ 00412db0 f   msvcprt:MSVCP100.dll
 0001:00011db6       ?xsgetn@?$basic_streambuf@DU?$char_traits@D@std@@@std@@MAE_JPAD_J@Z 00412db6 f   msvcprt:MSVCP100.dll
 0001:00011dbc       ?sync@?$basic_streambuf@DU?$char_traits@D@std@@@std@@MAEHXZ 00412dbc f   msvcprt:MSVCP100.dll
 0001:00011dc2       ?_Unlock@?$basic_streambuf@DU?$char_traits@D@std@@@std@@UAEXXZ 00412dc2 f   msvcprt:MSVCP100.dll
 0001:00011dc8       ?_Lock@?$basic_streambuf@DU?$char_traits@D@std@@@std@@UAEXXZ 00412dc8 f   msvcprt:MSVCP100.dll
 0001:00011dce       ?uflow@?$basic_streambuf@DU?$char_traits@D@std@@@std@@MAEHXZ 00412dce f   msvcprt:MSVCP100.dll
 0001:00011dd4       ?setbuf@?$basic_streambuf@DU?$char_traits@D@std@@@std@@MAEPAV12@PAD_J@Z 00412dd4 f   msvcprt:MSVCP100.dll
 0001:00011dda       ?imbue@?$basic_streambuf@DU?$char_traits@D@std@@@std@@MAEXABVlocale@2@@Z 00412dda f   msvcprt:MSVCP100.dll
 0001:00011de0       ??_U@YAPAXI@Z              00412de0 f   msvcprt:newaop_s.obj
 0001:00011deb       @__security_check_cookie@4 00412deb f   MSVCRT:secchk.obj
 0001:00011dfa       ?what@exception@std@@UBEPBDXZ 00412dfa f   MSVCRT:MSVCR100.dll
 0001:00011e00       ??0exception@std@@QAE@ABV01@@Z 00412e00 f   MSVCRT:MSVCR100.dll
 0001:00011e06       _free                      00412e06 f   MSVCRT:MSVCR100.dll
 0001:00011e0c       ??3@YAXPAX@Z               00412e0c f   MSVCRT:MSVCR100.dll
 0001:00011e12       ??_Etype_info@@UAEPAXI@Z   00412e12 f i MSVCRT:ti_inst.obj
 0001:00011e5e       ??2@YAPAXI@Z               00412e5e f   MSVCRT:MSVCR100.dll
 0001:00011e64       __onexit                   00412e64 f   MSVCRT:atonexit.obj
 0001:00011f05       _atexit                    00412f05 f   MSVCRT:atonexit.obj
 0001:00011f1c       ??0bad_cast@std@@QAE@ABV01@@Z 00412f1c f   MSVCRT:MSVCR100.dll
 0001:00011f22       ??1bad_cast@std@@UAE@XZ    00412f22 f   MSVCRT:MSVCR100.dll
 0001:00011f28       ??_L@YGXPAXIHP6EX0@Z1@Z    00412f28 f   MSVCRT:ehvecctr.obj
 0001:00011f8d       ?__ArrayUnwind@@YGXPAXIHP6EX0@Z@Z 00412f8d f   MSVCRT:ehvecdtr.obj
 0001:00011feb       ??_M@YGXPAXIHP6EX0@Z@Z     00412feb f   MSVCRT:ehvecdtr.obj
 0001:0001232c       _WinMainCRTStartup         0041332c f   MSVCRT:crtexew.obj
 0001:00012336       ___CxxFrameHandler3        00413336 f   MSVCRT:MSVCR100.dll
 0001:0001233c       __EH_prolog3               0041333c f   MSVCRT:ehprolg3.obj
 0001:0001236f       __EH_epilog3               0041336f f   MSVCRT:ehprolg3.obj
 0001:00012383       ___report_gsfailure        00413383 f   MSVCRT:gs_report.obj
 0001:0001248a       __unlock                   0041348a f   MSVCRT:MSVCR100.dll
 0001:00012490       ___dllonexit               00413490 f   MSVCRT:MSVCR100.dll
 0001:00012496       __lock                     00413496 f   MSVCRT:MSVCR100.dll
 0001:000124a0       __SEH_prolog4              004134a0 f   MSVCRT:sehprolg4.obj
 0001:000124e5       __SEH_epilog4              004134e5 f   MSVCRT:sehprolg4.obj
 0001:000124f9       __except_handler4          004134f9 f   MSVCRT:chandler4gs.obj
 0001:0001251e       ?terminate@@YAXXZ          0041351e f   MSVCRT:MSVCR100.dll
 0001:00012524       ?__CxxUnhandledExceptionFilter@@YGJPAU_EXCEPTION_POINTERS@@@Z 00413524 f   MSVCRT:unhandld.obj
 0001:00012566       ___CxxSetUnhandledExceptionFilter 00413566 f   MSVCRT:unhandld.obj
 0001:00012574       __amsg_exit                00413574 f   MSVCRT:MSVCR100.dll
 0001:0001257a       __RTC_Initialize           0041357a f   MSVCRT:_initsect_.obj
 0001:000125a0       __RTC_Terminate            004135a0 f   MSVCRT:_initsect_.obj
 0001:000125c6       __XcptFilter               004135c6 f   MSVCRT:MSVCR100.dll
 0001:000125d0       __ValidateImageBase        004135d0 f   MSVCRT:pesect.obj
 0001:00012610       __FindPESection            00413610 f   MSVCRT:pesect.obj
 0001:00012660       __IsNonwritableInCurrentImage 00413660 f   MSVCRT:pesect.obj
 0001:0001271c       __initterm                 0041371c f   MSVCRT:MSVCR100.dll
 0001:00012722       __initterm_e               00413722 f   MSVCRT:MSVCR100.dll
 0001:00012728       __setdefaultprecision      00413728 f   MSVCRT:fp8.obj
 0001:00012750       __matherr                  00413750 f   MSVCRT:merr.obj
 0001:00012750       __setargv                  00413750 f   MSVCRT:dllargv.obj
 0001:00012753       ___security_init_cookie    00413753 f   MSVCRT:gs_support.obj
 0001:000127ee       __crt_debugger_hook        004137ee f   MSVCRT:MSVCR100.dll
 0001:000127f4       ?_type_info_dtor_internal_method@type_info@@QAEXXZ 004137f4 f   MSVCRT:MSVCR100.dll
 0001:000127f4       ??1type_info@@UAE@XZ       004137f4 f   MSVCRT:MSVCR100.dll
 0001:000127fa       __except_handler4_common   004137fa f   MSVCRT:MSVCR100.dll
 0001:00012800       __invoke_watson            00413800 f   MSVCRT:MSVCR100.dll
 0001:00012806       __controlfp_s              00413806 f   MSVCRT:MSVCR100.dll
 0001:0001280c       ??0CInitGDIPlus@CImage@ATL@@QAE@XZ 0041380c f i atls:atlimage2.obj
 0001:00012847       ??1CDCCache@CImage@ATL@@QAE@XZ 00413847 f i atls:atlimage.obj
 0001:00012866       ??1CWin32Heap@ATL@@UAE@XZ  00413866 f i atls:atlstr.obj
 0001:00012881       ?Allocate@CWin32Heap@ATL@@UAEPAXI@Z 00413881 f i atls:atlstr.obj
 0001:00012898       ?Free@CWin32Heap@ATL@@UAEXPAX@Z 00413898 f i atls:atlstr.obj
 0001:000128b5       ?Reallocate@CWin32Heap@ATL@@UAEPAXPAXI@Z 004138b5 f i atls:atlstr.obj
 0001:000128ef       ?GetSize@CWin32Heap@ATL@@UAEIPAX@Z 004138ef f i atls:atlstr.obj
 0001:00012906       ??_GCWin32Heap@ATL@@UAEPAXI@Z 00413906 f i atls:atlstr.obj
 0001:00012906       ??_ECWin32Heap@ATL@@UAEPAXI@Z 00413906 f i atls:atlstr.obj
 0001:00012927       ??$AtlMultiply@K@ATL@@YAJPAKKK@Z 00413927 f i atls:atlstr.obj
 0001:00012927       ??$AtlMultiply@I@ATL@@YAJPAIII@Z 00413927 f i atls:atlstr.obj
 0001:0001294b       ?Free@CAtlStringMgr@ATL@@UAEXPAUCStringData@2@@Z 0041394b f i atls:atlstr.obj
 0001:00012959       ?GetNilString@CAtlStringMgr@ATL@@UAEPAUCStringData@2@XZ 00413959 f i atls:atlstr.obj
 0001:00012967       ?Clone@CAtlStringMgr@ATL@@UAEPAUIAtlStringMgr@2@XZ 00413967 f i atls:atlstr.obj
 0001:0001296a       ??_GCAtlStringMgr@ATL@@UAEPAXI@Z 0041396a f i atls:atlstr.obj
 0001:0001296a       ??_ECAtlStringMgr@ATL@@UAEPAXI@Z 0041396a f i atls:atlstr.obj
 0001:0001298c       ??$AtlAdd@I@ATL@@YAJPAIII@Z 0041398c f i atls:atlstr.obj
 0001:000129b2       ?Allocate@CAtlStringMgr@ATL@@UAEPAUCStringData@2@HH@Z 004139b2 f i atls:atlstr.obj
 0001:00012a16       ?Reallocate@CAtlStringMgr@ATL@@UAEPAUCStringData@2@PAU32@HH@Z 00413a16 f i atls:atlstr.obj
 0001:00012a71       ?RemoveAll@?$CSimpleArray@PAUHINSTANCE__@@V?$CSimpleArrayEqualHelper@PAUHINSTANCE__@@@ATL@@@ATL@@QAEXXZ 00413a71 f i atls:atlbase.obj
 0001:00012a90       ?Init@CComCriticalSection@ATL@@QAEJXZ 00413a90 f i atls:atlbase.obj
 0001:00012abb       ??0_ATL_BASE_MODULE70@ATL@@QAE@XZ 00413abb f i atls:atlbase.obj
 0001:00012ae0       ??1CAtlBaseModule@ATL@@QAE@XZ 00413ae0 f   atls:atlbase.obj
 0001:00012af8       ?GetHInstanceAt@CAtlBaseModule@ATL@@QAEPAUHINSTANCE__@@H@Z 00413af8 f   atls:atlbase.obj
 0001:00012b55       ??0CAtlBaseModule@ATL@@QAE@XZ 00413b55 f   atls:atlbase.obj
 0001:00012b96       _memset                    00413b96 f   MSVCRT:MSVCR100.dll
 0001:00012ba0       __chkstk                   00413ba0 f   MSVCRT:chkstk.obj
 0001:00012ba0       __alloca_probe             00413ba0     MSVCRT:chkstk.obj
 0001:00012bd0       __ftol2_sse                00413bd0 f   MSVCRT:ftol2.obj
 0001:00012bd9       __ftol2_pentium4           00413bd9 f   MSVCRT:ftol2.obj
 0001:00012bec       __ftol2_sse_excpt          00413bec f   MSVCRT:ftol2.obj
 0001:00012c06       __ftol2                    00413c06 f   MSVCRT:ftol2.obj
 0001:00012c7c       __CxxThrowException@8      00413c7c f   MSVCRT:MSVCR100.dll
 0001:00012c82       _memcpy                    00413c82 f   MSVCRT:MSVCR100.dll
 0001:00012c90       __alloca_probe_16          00413c90 f   MSVCRT:alloca16.obj
 0001:00012ca6       __alloca_probe_8           00413ca6     MSVCRT:alloca16.obj
 0001:00012cbc       ___sse2_available_init     00413cbc f   MSVCRT:cpu_disp.obj
 0002:00000000       __imp__InitCommonControlsEx@4 00415000     comctl32:COMCTL32.dll
 0002:00000004       \177COMCTL32_NULL_THUNK_DATA 00415004     comctl32:COMCTL32.dll
 0002:00000008       __imp__SetDIBColorTable@16 00415008     gdi32:GDI32.dll
 0002:0000000c       __imp__CreateCompatibleDC@4 0041500c     gdi32:GDI32.dll
 0002:00000010       __imp__GetObjectA@12       00415010     gdi32:GDI32.dll
 0002:00000014       __imp__CreateDIBSection@24 00415014     gdi32:GDI32.dll
 0002:00000018       __imp__GetDeviceCaps@8     00415018     gdi32:GDI32.dll
 0002:0000001c       __imp__StretchBlt@44       0041501c     gdi32:GDI32.dll
 0002:00000020       __imp__SelectObject@8      00415020     gdi32:GDI32.dll
 0002:00000024       __imp__CreateFontA@56      00415024     gdi32:GDI32.dll
 0002:00000028       __imp__CreateSolidBrush@4  00415028     gdi32:GDI32.dll
 0002:0000002c       __imp__SetBkMode@8         0041502c     gdi32:GDI32.dll
 0002:00000030       __imp__SetTextColor@8      00415030     gdi32:GDI32.dll
 0002:00000034       __imp__TextOutA@20         00415034     gdi32:GDI32.dll
 0002:00000038       __imp__SetBkColor@8        00415038     gdi32:GDI32.dll
 0002:0000003c       __imp__GetDIBColorTable@16 0041503c     gdi32:GDI32.dll
 0002:00000040       __imp__DeleteObject@4      00415040     gdi32:GDI32.dll
 0002:00000044       __imp__DeleteDC@4          00415044     gdi32:GDI32.dll
 0002:00000048       \177GDI32_NULL_THUNK_DATA  00415048     gdi32:GDI32.dll
 0002:0000004c       __imp__GetCurrentProcess@0 0041504c     kernel32:KERNEL32.dll
 0002:00000050       __imp__SetErrorMode@4      00415050     kernel32:KERNEL32.dll
 0002:00000054       __imp__SetUnhandledExceptionFilter@4 00415054     kernel32:KERNEL32.dll
 0002:00000058       __imp__DeleteFileA@4       00415058     kernel32:KERNEL32.dll
 0002:0000005c       __imp__GetFullPathNameA@16 0041505c     kernel32:KERNEL32.dll
 0002:00000060       __imp__OpenProcess@12      00415060     kernel32:KERNEL32.dll
 0002:00000064       __imp__VirtualAllocEx@20   00415064     kernel32:KERNEL32.dll
 0002:00000068       __imp__WriteProcessMemory@20 00415068     kernel32:KERNEL32.dll
 0002:0000006c       __imp__VirtualFreeEx@16    0041506c     kernel32:KERNEL32.dll
 0002:00000070       __imp__GetProcAddress@8    00415070     kernel32:KERNEL32.dll
 0002:00000074       __imp__GetProcessId@4      00415074     kernel32:KERNEL32.dll
 0002:00000078       __imp__CreateMutexA@12     00415078     kernel32:KERNEL32.dll
 0002:0000007c       __imp__CreateRemoteThread@28 0041507c     kernel32:KERNEL32.dll
 0002:00000080       __imp__WaitForSingleObject@8 00415080     kernel32:KERNEL32.dll
 0002:00000084       __imp__GlobalAlloc@8       00415084     kernel32:KERNEL32.dll
 0002:00000088       __imp__GlobalLock@4        00415088     kernel32:KERNEL32.dll
 0002:0000008c       __imp__InterlockedExchange@8 0041508c     kernel32:KERNEL32.dll
 0002:00000090       __imp__GlobalUnlock@4      00415090     kernel32:KERNEL32.dll
 0002:00000094       __imp__GlobalFree@4        00415094     kernel32:KERNEL32.dll
 0002:00000098       __imp__MultiByteToWideChar@24 00415098     kernel32:KERNEL32.dll
 0002:0000009c       __imp__lstrlenA@4          0041509c     kernel32:KERNEL32.dll
 0002:000000a0       __imp__SizeofResource@8    004150a0     kernel32:KERNEL32.dll
 0002:000000a4       __imp__LockResource@4      004150a4     kernel32:KERNEL32.dll
 0002:000000a8       __imp__LoadResource@8      004150a8     kernel32:KERNEL32.dll
 0002:000000ac       __imp__FindResourceW@12    004150ac     kernel32:KERNEL32.dll
 0002:000000b0       __imp__FindResourceExW@16  004150b0     kernel32:KERNEL32.dll
 0002:000000b4       __imp__GetLastError@0      004150b4     kernel32:KERNEL32.dll
 0002:000000b8       __imp__GetCurrentProcessId@0 004150b8     kernel32:KERNEL32.dll
 0002:000000bc       __imp__ReadFile@20         004150bc     kernel32:KERNEL32.dll
 0002:000000c0       __imp__GetPrivateProfileStringA@24 004150c0     kernel32:KERNEL32.dll
 0002:000000c4       __imp__GetPrivateProfileIntA@16 004150c4     kernel32:KERNEL32.dll
 0002:000000c8       __imp__TerminateThread@8   004150c8     kernel32:KERNEL32.dll
 0002:000000cc       __imp__CreateIoCompletionPort@16 004150cc     kernel32:KERNEL32.dll
 0002:000000d0       __imp__GetSystemInfo@4     004150d0     kernel32:KERNEL32.dll
 0002:000000d4       __imp__CreateSemaphoreA@16 004150d4     kernel32:KERNEL32.dll
 0002:000000d8       __imp__ReleaseSemaphore@12 004150d8     kernel32:KERNEL32.dll
 0002:000000dc       __imp__GetQueuedCompletionStatus@20 004150dc     kernel32:KERNEL32.dll
 0002:000000e0       __imp__TerminateProcess@8  004150e0     kernel32:KERNEL32.dll
 0002:000000e4       __imp__RaiseException@16   004150e4     kernel32:KERNEL32.dll
 0002:000000e8       __imp__GetProcessHeap@0    004150e8     kernel32:KERNEL32.dll
 0002:000000ec       __imp__HeapSize@12         004150ec     kernel32:KERNEL32.dll
 0002:000000f0       __imp__HeapReAlloc@16      004150f0     kernel32:KERNEL32.dll
 0002:000000f4       __imp__HeapFree@12         004150f4     kernel32:KERNEL32.dll
 0002:000000f8       __imp__HeapAlloc@12        004150f8     kernel32:KERNEL32.dll
 0002:000000fc       __imp__HeapDestroy@4       004150fc     kernel32:KERNEL32.dll
 0002:00000100       __imp__InitializeCriticalSectionAndSpinCount@8 00415100     kernel32:KERNEL32.dll
 0002:00000104       __imp__GetSystemTimeAsFileTime@4 00415104     kernel32:KERNEL32.dll
 0002:00000108       __imp__QueryPerformanceCounter@4 00415108     kernel32:KERNEL32.dll
 0002:0000010c       __imp__IsDebuggerPresent@0 0041510c     kernel32:KERNEL32.dll
 0002:00000110       __imp__UnhandledExceptionFilter@4 00415110     kernel32:KERNEL32.dll
 0002:00000114       __imp__GetStartupInfoW@4   00415114     kernel32:KERNEL32.dll
 0002:00000118       __imp__HeapSetInformation@16 00415118     kernel32:KERNEL32.dll
 0002:0000011c       __imp__InterlockedCompareExchange@12 0041511c     kernel32:KERNEL32.dll
 0002:00000120       __imp__DecodePointer@4     00415120     kernel32:KERNEL32.dll
 0002:00000124       __imp__EncodePointer@4     00415124     kernel32:KERNEL32.dll
 0002:00000128       __imp__SetThreadPriority@8 00415128     kernel32:KERNEL32.dll
 0002:0000012c       __imp__GetCurrentThreadId@0 0041512c     kernel32:KERNEL32.dll
 0002:00000130       __imp__GetFileSize@8       00415130     kernel32:KERNEL32.dll
 0002:00000134       __imp__WriteFile@20        00415134     kernel32:KERNEL32.dll
 0002:00000138       __imp__IsProcessorFeaturePresent@4 00415138     kernel32:KERNEL32.dll
 0002:0000013c       __imp__SetFilePointer@16   0041513c     kernel32:KERNEL32.dll
 0002:00000140       __imp__CreateFileA@28      00415140     kernel32:KERNEL32.dll
 0002:00000144       __imp__GetLocalTime@4      00415144     kernel32:KERNEL32.dll
 0002:00000148       __imp__CreateDirectoryA@8  00415148     kernel32:KERNEL32.dll
 0002:0000014c       __imp__CloseHandle@4       0041514c     kernel32:KERNEL32.dll
 0002:00000150       __imp__GetModuleHandleA@4  00415150     kernel32:KERNEL32.dll
 0002:00000154       __imp__LeaveCriticalSection@4 00415154     kernel32:KERNEL32.dll
 0002:00000158       __imp__EnterCriticalSection@4 00415158     kernel32:KERNEL32.dll
 0002:0000015c       __imp__DeleteCriticalSection@4 0041515c     kernel32:KERNEL32.dll
 0002:00000160       __imp__InitializeCriticalSection@4 00415160     kernel32:KERNEL32.dll
 0002:00000164       __imp__GetTickCount@0      00415164     kernel32:KERNEL32.dll
 0002:00000168       __imp__MoveFileA@8         00415168     kernel32:KERNEL32.dll
 0002:0000016c       __imp__Sleep@4             0041516c     kernel32:KERNEL32.dll
 0002:00000170       __imp__CreateThread@24     00415170     kernel32:KERNEL32.dll
 0002:00000174       \177KERNEL32_NULL_THUNK_DATA 00415174     kernel32:KERNEL32.dll
 0002:00000178       __imp__TransparentBlt@44   00415178     msimg32:MSIMG32.dll
 0002:0000017c       __imp__AlphaBlend@44       0041517c     msimg32:MSIMG32.dll
 0002:00000180       \177MSIMG32_NULL_THUNK_DATA 00415180     msimg32:MSIMG32.dll
 0002:00000184       __imp_?_Xinvalid_argument@std@@YAXPBD@Z 00415184     msvcprt:MSVCP100.dll
 0002:00000188       __imp___Stolx              00415188     msvcprt:MSVCP100.dll
 0002:0000018c       __imp_?_Swap_all@_Container_base12@std@@QAEXAAU12@@Z 0041518c     msvcprt:MSVCP100.dll
 0002:00000190       __imp_??1_Container_base12@std@@QAE@XZ 00415190     msvcprt:MSVCP100.dll
 0002:00000194       __imp_??6?$basic_ostream@DU?$char_traits@D@std@@@std@@QAEAAV01@H@Z 00415194     msvcprt:MSVCP100.dll
 0002:00000198       __imp_??0?$basic_iostream@DU?$char_traits@D@std@@@std@@QAE@PAV?$basic_streambuf@DU?$char_traits@D@std@@@1@@Z 00415198     msvcprt:MSVCP100.dll
 0002:0000019c       __imp_?imbue@?$basic_streambuf@DU?$char_traits@D@std@@@std@@MAEXABVlocale@2@@Z 0041519c     msvcprt:MSVCP100.dll
 0002:000001a0       __imp_?setbuf@?$basic_streambuf@DU?$char_traits@D@std@@@std@@MAEPAV12@PAD_J@Z 004151a0     msvcprt:MSVCP100.dll
 0002:000001a4       __imp_?uflow@?$basic_streambuf@DU?$char_traits@D@std@@@std@@MAEHXZ 004151a4     msvcprt:MSVCP100.dll
 0002:000001a8       __imp_?_Xout_of_range@std@@YAXPBD@Z 004151a8     msvcprt:MSVCP100.dll
 0002:000001ac       __imp_?_Xlength_error@std@@YAXPBD@Z 004151ac     msvcprt:MSVCP100.dll
 0002:000001b0       __imp_?write@?$basic_ostream@DU?$char_traits@D@std@@@std@@QAEAAV12@PBD_J@Z 004151b0     msvcprt:MSVCP100.dll
 0002:000001b4       __imp_?endl@std@@YAAAV?$basic_ostream@DU?$char_traits@D@std@@@1@AAV21@@Z 004151b4     msvcprt:MSVCP100.dll
 0002:000001b8       __imp_?flush@?$basic_ostream@DU?$char_traits@D@std@@@std@@QAEAAV12@XZ 004151b8     msvcprt:MSVCP100.dll
 0002:000001bc       __imp_?setstate@?$basic_ios@DU?$char_traits@D@std@@@std@@QAEXH_N@Z 004151bc     msvcprt:MSVCP100.dll
 0002:000001c0       __imp_?clear@?$basic_ios@DU?$char_traits@D@std@@@std@@QAEXH_N@Z 004151c0     msvcprt:MSVCP100.dll
 0002:000001c4       __imp_?sputc@?$basic_streambuf@DU?$char_traits@D@std@@@std@@QAEHD@Z 004151c4     msvcprt:MSVCP100.dll
 0002:000001c8       __imp_?_Pninc@?$basic_streambuf@DU?$char_traits@D@std@@@std@@IAEPADXZ 004151c8     msvcprt:MSVCP100.dll
 0002:000001cc       __imp_?_Osfx@?$basic_ostream@DU?$char_traits@D@std@@@std@@QAEXXZ 004151cc     msvcprt:MSVCP100.dll
 0002:000001d0       __imp_?uncaught_exception@std@@YA_NXZ 004151d0     msvcprt:MSVCP100.dll
 0002:000001d4       __imp_??1?$basic_ios@DU?$char_traits@D@std@@@std@@UAE@XZ 004151d4     msvcprt:MSVCP100.dll
 0002:000001d8       __imp_??1?$basic_ostream@DU?$char_traits@D@std@@@std@@UAE@XZ 004151d8     msvcprt:MSVCP100.dll
 0002:000001dc       __imp_??_7?$basic_ostream@DU?$char_traits@D@std@@@std@@6B@ 004151dc     msvcprt:MSVCP100.dll
 0002:000001e0       __imp_??1?$basic_streambuf@DU?$char_traits@D@std@@@std@@UAE@XZ 004151e0     msvcprt:MSVCP100.dll
 0002:000001e4       __imp_?_Decref@facet@locale@std@@QAEPAV123@XZ 004151e4     msvcprt:MSVCP100.dll
 0002:000001e8       __imp_??1_Lockit@std@@QAE@XZ 004151e8     msvcprt:MSVCP100.dll
 0002:000001ec       __imp_??0_Lockit@std@@QAE@H@Z 004151ec     msvcprt:MSVCP100.dll
 0002:000001f0       __imp_?_BADOFF@std@@3_JB   004151f0     msvcprt:MSVCP100.dll
 0002:000001f4       __imp_?_Fiopen@std@@YAPAU_iobuf@@PBDHH@Z 004151f4     msvcprt:MSVCP100.dll
 0002:000001f8       __imp_?always_noconv@codecvt_base@std@@QBE_NXZ 004151f8     msvcprt:MSVCP100.dll
 0002:000001fc       __imp_?_Getgloballocale@locale@std@@CAPAV_Locimp@12@XZ 004151fc     msvcprt:MSVCP100.dll
 0002:00000200       __imp_?_Incref@facet@locale@std@@QAEXXZ 00415200     msvcprt:MSVCP100.dll
 0002:00000204       __imp_??Bid@locale@std@@QAEIXZ 00415204     msvcprt:MSVCP100.dll
 0002:00000208       __imp_?id@?$codecvt@DDH@std@@2V0locale@2@A 00415208     msvcprt:MSVCP100.dll
 0002:0000020c       __imp_?xsputn@?$basic_streambuf@DU?$char_traits@D@std@@@std@@MAE_JPBD_J@Z 0041520c     msvcprt:MSVCP100.dll
 0002:00000210       __imp_?showmanyc@?$basic_streambuf@DU?$char_traits@D@std@@@std@@MAE_JXZ 00415210     msvcprt:MSVCP100.dll
 0002:00000214       __imp_?xsgetn@?$basic_streambuf@DU?$char_traits@D@std@@@std@@MAE_JPAD_J@Z 00415214     msvcprt:MSVCP100.dll
 0002:00000218       __imp_?sputn@?$basic_streambuf@DU?$char_traits@D@std@@@std@@QAE_JPBD_J@Z 00415218     msvcprt:MSVCP100.dll
 0002:0000021c       __imp_?_Getcat@?$codecvt@DDH@std@@SAIPAPBVfacet@locale@2@PBV42@@Z 0041521c     msvcprt:MSVCP100.dll
 0002:00000220       __imp_?_Init@?$basic_streambuf@DU?$char_traits@D@std@@@std@@IAEXXZ 00415220     msvcprt:MSVCP100.dll
 0002:00000224       __imp_?setg@?$basic_streambuf@DU?$char_traits@D@std@@@std@@IAEXPAD00@Z 00415224     msvcprt:MSVCP100.dll
 0002:00000228       __imp_?getloc@?$basic_streambuf@DU?$char_traits@D@std@@@std@@QBE?AVlocale@2@XZ 00415228     msvcprt:MSVCP100.dll
 0002:0000022c       __imp_??0?$basic_streambuf@DU?$char_traits@D@std@@@std@@IAE@XZ 0041522c     msvcprt:MSVCP100.dll
 0002:00000230       __imp_?unshift@?$codecvt@DDH@std@@QBEHAAHPAD1AAPAD@Z 00415230     msvcprt:MSVCP100.dll
 0002:00000234       __imp_??0?$basic_ostream@DU?$char_traits@D@std@@@std@@QAE@PAV?$basic_streambuf@DU?$char_traits@D@std@@@1@_N@Z 00415234     msvcprt:MSVCP100.dll
 0002:00000238       __imp_??0?$basic_ios@DU?$char_traits@D@std@@@std@@IAE@XZ 00415238     msvcprt:MSVCP100.dll
 0002:0000023c       __imp_?out@?$codecvt@DDH@std@@QBEHAAHPBD1AAPBDPAD3AAPAD@Z 0041523c     msvcprt:MSVCP100.dll
 0002:00000240       __imp_?in@?$codecvt@DDH@std@@QBEHAAHPBD1AAPBDPAD3AAPAD@Z 00415240     msvcprt:MSVCP100.dll
 0002:00000244       __imp_??6?$basic_ostream@DU?$char_traits@D@std@@@std@@QAEAAV01@P6AAAV01@AAV01@@Z@Z 00415244     msvcprt:MSVCP100.dll
 0002:00000248       __imp_?sync@?$basic_streambuf@DU?$char_traits@D@std@@@std@@MAEHXZ 00415248     msvcprt:MSVCP100.dll
 0002:0000024c       __imp_?_Unlock@?$basic_streambuf@DU?$char_traits@D@std@@@std@@UAEXXZ 0041524c     msvcprt:MSVCP100.dll
 0002:00000250       __imp_?_Lock@?$basic_streambuf@DU?$char_traits@D@std@@@std@@UAEXXZ 00415250     msvcprt:MSVCP100.dll
 0002:00000254       __imp_??1?$basic_iostream@DU?$char_traits@D@std@@@std@@UAE@XZ 00415254     msvcprt:MSVCP100.dll
 0002:00000258       \177MSVCP100_NULL_THUNK_DATA 00415258     msvcprt:MSVCP100.dll
 0002:0000025c       __imp___initterm           0041525c     MSVCRT:MSVCR100.dll
 0002:00000260       __imp___initterm_e         00415260     MSVCRT:MSVCR100.dll
 0002:00000264       __imp___configthreadlocale 00415264     MSVCRT:MSVCR100.dll
 0002:00000268       __imp____setusermatherr    00415268     MSVCRT:MSVCR100.dll
 0002:0000026c       __imp___commode            0041526c     MSVCRT:MSVCR100.dll
 0002:00000270       __imp___fmode              00415270     MSVCRT:MSVCR100.dll
 0002:00000274       __imp____set_app_type      00415274     MSVCRT:MSVCR100.dll
 0002:00000278       __imp__exit                00415278     MSVCRT:MSVCR100.dll
 0002:0000027c       __imp___crt_debugger_hook  0041527c     MSVCRT:MSVCR100.dll
 0002:00000280       __imp_?_type_info_dtor_internal_method@type_info@@QAEXXZ 00415280     MSVCRT:MSVCR100.dll
 0002:00000284       __imp___except_handler4_common 00415284     MSVCRT:MSVCR100.dll
 0002:00000288       __imp___invoke_watson      00415288     MSVCRT:MSVCR100.dll
 0002:0000028c       __imp___controlfp_s        0041528c     MSVCRT:MSVCR100.dll
 0002:00000290       __imp__memset              00415290     MSVCRT:MSVCR100.dll
 0002:00000294       __imp___CxxThrowException@8 00415294     MSVCRT:MSVCR100.dll
 0002:00000298       __imp__memcpy              00415298     MSVCRT:MSVCR100.dll
 0002:0000029c       __imp___acmdln             0041529c     MSVCRT:MSVCR100.dll
 0002:000002a0       __imp__sprintf             004152a0     MSVCRT:MSVCR100.dll
 0002:000002a4       __imp_?what@exception@std@@UBEPBDXZ 004152a4     MSVCRT:MSVCR100.dll
 0002:000002a8       __imp_??1exception@std@@UAE@XZ 004152a8     MSVCRT:MSVCR100.dll
 0002:000002ac       __imp_??0exception@std@@QAE@ABQBD@Z 004152ac     MSVCRT:MSVCR100.dll
 0002:000002b0       __imp_??0exception@std@@QAE@ABV01@@Z 004152b0     MSVCRT:MSVCR100.dll
 0002:000002b4       __imp__memmove             004152b4     MSVCRT:MSVCR100.dll
 0002:000002b8       __imp__free                004152b8     MSVCRT:MSVCR100.dll
 0002:000002bc       __imp__malloc              004152bc     MSVCRT:MSVCR100.dll
 0002:000002c0       __imp___fseeki64           004152c0     MSVCRT:MSVCR100.dll
 0002:000002c4       __imp__fread               004152c4     MSVCRT:MSVCR100.dll
 0002:000002c8       __imp_??3@YAXPAX@Z         004152c8     MSVCRT:MSVCR100.dll
 0002:000002cc       __imp__fwrite              004152cc     MSVCRT:MSVCR100.dll
 0002:000002d0       __imp__strtoul             004152d0     MSVCRT:MSVCR100.dll
 0002:000002d4       __imp__fclose              004152d4     MSVCRT:MSVCR100.dll
 0002:000002d8       __imp_??2@YAPAXI@Z         004152d8     MSVCRT:MSVCR100.dll
 0002:000002dc       __imp__rand                004152dc     MSVCRT:MSVCR100.dll
 0002:000002e0       __imp__strcpy_s            004152e0     MSVCRT:MSVCR100.dll
 0002:000002e4       __imp___lock_file          004152e4     MSVCRT:MSVCR100.dll
 0002:000002e8       __imp___unlock_file        004152e8     MSVCRT:MSVCR100.dll
 0002:000002ec       __imp__fputc               004152ec     MSVCRT:MSVCR100.dll
 0002:000002f0       __imp__ungetc              004152f0     MSVCRT:MSVCR100.dll
 0002:000002f4       __imp__fgetc               004152f4     MSVCRT:MSVCR100.dll
 0002:000002f8       __imp__memcpy_s            004152f8     MSVCRT:MSVCR100.dll
 0002:000002fc       __imp__fgetpos             004152fc     MSVCRT:MSVCR100.dll
 0002:00000300       __imp__fsetpos             00415300     MSVCRT:MSVCR100.dll
 0002:00000304       __imp__setvbuf             00415304     MSVCRT:MSVCR100.dll
 0002:00000308       __imp__fflush              00415308     MSVCRT:MSVCR100.dll
 0002:0000030c       __imp_??0bad_cast@std@@QAE@ABV01@@Z 0041530c     MSVCRT:MSVCR100.dll
 0002:00000310       __imp_??1bad_cast@std@@UAE@XZ 00415310     MSVCRT:MSVCR100.dll
 0002:00000314       __imp_??0bad_cast@std@@QAE@PBD@Z 00415314     MSVCRT:MSVCR100.dll
 0002:00000318       __imp__fopen_s             00415318     MSVCRT:MSVCR100.dll
 0002:0000031c       __imp__strtok_s            0041531c     MSVCRT:MSVCR100.dll
 0002:00000320       __imp__atoi                00415320     MSVCRT:MSVCR100.dll
 0002:00000324       __imp__vsprintf_s          00415324     MSVCRT:MSVCR100.dll
 0002:00000328       __imp__strstr              00415328     MSVCRT:MSVCR100.dll
 0002:0000032c       __imp__strncpy_s           0041532c     MSVCRT:MSVCR100.dll
 0002:00000330       __imp__strchr              00415330     MSVCRT:MSVCR100.dll
 0002:00000334       __imp_??_V@YAXPAX@Z        00415334     MSVCRT:MSVCR100.dll
 0002:00000338       __imp__isspace             00415338     MSVCRT:MSVCR100.dll
 0002:0000033c       __imp__isdigit             0041533c     MSVCRT:MSVCR100.dll
 0002:00000340       __imp__atof                00415340     MSVCRT:MSVCR100.dll
 0002:00000344       __imp__isalpha             00415344     MSVCRT:MSVCR100.dll
 0002:00000348       __imp__isalnum             00415348     MSVCRT:MSVCR100.dll
 0002:0000034c       __imp__sscanf_s            0041534c     MSVCRT:MSVCR100.dll
 0002:00000350       __imp__srand               00415350     MSVCRT:MSVCR100.dll
 0002:00000354       __imp___time64             00415354     MSVCRT:MSVCR100.dll
 0002:00000358       __imp__rename              00415358     MSVCRT:MSVCR100.dll
 0002:0000035c       __imp___resetstkoflw       0041535c     MSVCRT:MSVCR100.dll
 0002:00000360       __imp___vswprintf          00415360     MSVCRT:MSVCR100.dll
 0002:00000364       __imp___wcsicmp            00415364     MSVCRT:MSVCR100.dll
 0002:00000368       __imp__wcscspn             00415368     MSVCRT:MSVCR100.dll
 0002:0000036c       __imp__wcsspn              0041536c     MSVCRT:MSVCR100.dll
 0002:00000370       __imp__memmove_s           00415370     MSVCRT:MSVCR100.dll
 0002:00000374       __imp__wmemcpy_s           00415374     MSVCRT:MSVCR100.dll
 0002:00000378       __imp__calloc              00415378     MSVCRT:MSVCR100.dll
 0002:0000037c       __imp___recalloc           0041537c     MSVCRT:MSVCR100.dll
 0002:00000380       __imp__strtok              00415380     MSVCRT:MSVCR100.dll
 0002:00000384       __imp___localtime64_s      00415384     MSVCRT:MSVCR100.dll
 0002:00000388       __imp__asctime_s           00415388     MSVCRT:MSVCR100.dll
 0002:0000038c       __imp__memchr              0041538c     MSVCRT:MSVCR100.dll
 0002:00000390       __imp____CxxFrameHandler3  00415390     MSVCRT:MSVCR100.dll
 0002:00000394       __imp___unlock             00415394     MSVCRT:MSVCR100.dll
 0002:00000398       __imp____dllonexit         00415398     MSVCRT:MSVCR100.dll
 0002:0000039c       __imp___lock               0041539c     MSVCRT:MSVCR100.dll
 0002:000003a0       __imp___onexit             004153a0     MSVCRT:MSVCR100.dll
 0002:000003a4       __imp_?terminate@@YAXXZ    004153a4     MSVCRT:MSVCR100.dll
 0002:000003a8       __imp___amsg_exit          004153a8     MSVCRT:MSVCR100.dll
 0002:000003ac       __imp____getmainargs       004153ac     MSVCRT:MSVCR100.dll
 0002:000003b0       __imp___cexit              004153b0     MSVCRT:MSVCR100.dll
 0002:000003b4       __imp___exit               004153b4     MSVCRT:MSVCR100.dll
 0002:000003b8       __imp___XcptFilter         004153b8     MSVCRT:MSVCR100.dll
 0002:000003bc       __imp___ismbblead          004153bc     MSVCRT:MSVCR100.dll
 0002:000003c0       \177MSVCR100_NULL_THUNK_DATA 004153c0     MSVCRT:MSVCR100.dll
 0002:000003c4       __imp__EnumProcesses@12    004153c4     Psapi:PSAPI.DLL
 0002:000003c8       __imp__EnumProcessModules@16 004153c8     Psapi:PSAPI.DLL
 0002:000003cc       __imp__GetModuleFileNameExA@16 004153cc     Psapi:PSAPI.DLL
 0002:000003d0       __imp__GetModuleBaseNameA@16 004153d0     Psapi:PSAPI.DLL
 0002:000003d4       \177PSAPI_NULL_THUNK_DATA  004153d4     Psapi:PSAPI.DLL
 0002:000003d8       __imp__PathFindExtensionA@4 004153d8     shlwapi:SHLWAPI.dll
 0002:000003dc       __imp__PathFindExtensionW@4 004153dc     shlwapi:SHLWAPI.dll
 0002:000003e0       \177SHLWAPI_NULL_THUNK_DATA 004153e0     shlwapi:SHLWAPI.dll
 0002:000003e4       __imp__GetSystemMetrics@4  004153e4     user32:USER32.dll
 0002:000003e8       __imp__ReleaseDC@8         004153e8     user32:USER32.dll
 0002:000003ec       __imp__SetDlgItemTextA@12  004153ec     user32:USER32.dll
 0002:000003f0       __imp__OpenClipboard@4     004153f0     user32:USER32.dll
 0002:000003f4       __imp__GetClientRect@8     004153f4     user32:USER32.dll
 0002:000003f8       __imp__GetWindowTextA@12   004153f8     user32:USER32.dll
 0002:000003fc       __imp__LoadImageA@24       004153fc     user32:USER32.dll
 0002:00000400       __imp__GetDC@4             00415400     user32:USER32.dll
 0002:00000404       __imp__SetClipboardData@8  00415404     user32:USER32.dll
 0002:00000408       __imp__LoadStringA@16      00415408     user32:USER32.dll
 0002:0000040c       __imp__wsprintfA           0041540c     user32:USER32.dll
 0002:00000410       __imp__SetWindowTextA@8    00415410     user32:USER32.dll
 0002:00000414       __imp__EndPaint@8          00415414     user32:USER32.dll
 0002:00000418       __imp__LoadAcceleratorsA@8 00415418     user32:USER32.dll
 0002:0000041c       __imp__GetMessageA@16      0041541c     user32:USER32.dll
 0002:00000420       __imp__TranslateAcceleratorA@12 00415420     user32:USER32.dll
 0002:00000424       __imp__TranslateMessage@4  00415424     user32:USER32.dll
 0002:00000428       __imp__DispatchMessageA@4  00415428     user32:USER32.dll
 0002:0000042c       __imp__LoadIconA@8         0041542c     user32:USER32.dll
 0002:00000430       __imp__LoadCursorA@8       00415430     user32:USER32.dll
 0002:00000434       __imp__RegisterClassExA@4  00415434     user32:USER32.dll
 0002:00000438       __imp__CreateWindowExA@48  00415438     user32:USER32.dll
 0002:0000043c       __imp__ShowWindow@8        0041543c     user32:USER32.dll
 0002:00000440       __imp__UpdateWindow@4      00415440     user32:USER32.dll
 0002:00000444       __imp__CreateDialogParamA@20 00415444     user32:USER32.dll
 0002:00000448       __imp__DialogBoxParamA@20  00415448     user32:USER32.dll
 0002:0000044c       __imp__MessageBoxA@16      0041544c     user32:USER32.dll
 0002:00000450       __imp__DestroyWindow@4     00415450     user32:USER32.dll
 0002:00000454       __imp__SendMessageA@16     00415454     user32:USER32.dll
 0002:00000458       __imp__BeginPaint@8        00415458     user32:USER32.dll
 0002:0000045c       __imp__GetDlgItem@8        0041545c     user32:USER32.dll
 0002:00000460       __imp__CloseClipboard@0    00415460     user32:USER32.dll
 0002:00000464       __imp__SetTimer@16         00415464     user32:USER32.dll
 0002:00000468       __imp__EndDialog@8         00415468     user32:USER32.dll
 0002:0000046c       __imp__DefWindowProcA@16   0041546c     user32:USER32.dll
 0002:00000470       __imp__PostQuitMessage@4   00415470     user32:USER32.dll
 0002:00000474       __imp__SetClassLongA@12    00415474     user32:USER32.dll
 0002:00000478       __imp__EmptyClipboard@0    00415478     user32:USER32.dll
 0002:0000047c       __imp__FillRect@12         0041547c     user32:USER32.dll
 0002:00000480       __imp__MoveWindow@24       00415480     user32:USER32.dll
 0002:00000484       \177USER32_NULL_THUNK_DATA 00415484     user32:USER32.dll
 0002:00000488       __imp__VMProtectEnd@0      00415488     VMProtectSDK32:VMProtectSDK32.dll
 0002:0000048c       __imp__VMProtectBegin@4    0041548c     VMProtectSDK32:VMProtectSDK32.dll
 0002:00000490       \177VMProtectSDK32_NULL_THUNK_DATA 00415490     VMProtectSDK32:VMProtectSDK32.dll
 0002:00000494       __imp__WSARecv@28          00415494     ws2_32:WS2_32.dll
 0002:00000498       __imp__inet_ntoa@4         00415498     ws2_32:WS2_32.dll
 0002:0000049c       __imp__WSAAccept@20        0041549c     ws2_32:WS2_32.dll
 0002:000004a0       __imp__WSASend@28          004154a0     ws2_32:WS2_32.dll
 0002:000004a4       __imp__listen@8            004154a4     ws2_32:WS2_32.dll
 0002:000004a8       __imp__bind@12             004154a8     ws2_32:WS2_32.dll
 0002:000004ac       __imp__WSAStartup@8        004154ac     ws2_32:WS2_32.dll
 0002:000004b0       __imp__socket@12           004154b0     ws2_32:WS2_32.dll
 0002:000004b4       __imp__htons@4             004154b4     ws2_32:WS2_32.dll
 0002:000004b8       __imp__gethostbyname@4     004154b8     ws2_32:WS2_32.dll
 0002:000004bc       __imp__connect@12          004154bc     ws2_32:WS2_32.dll
 0002:000004c0       __imp__WSAGetLastError@0   004154c0     ws2_32:WS2_32.dll
 0002:000004c4       __imp__closesocket@4       004154c4     ws2_32:WS2_32.dll
 0002:000004c8       __imp__recv@16             004154c8     ws2_32:WS2_32.dll
 0002:000004cc       __imp__send@16             004154cc     ws2_32:WS2_32.dll
 0002:000004d0       __imp__WSASocketA@24       004154d0     ws2_32:WS2_32.dll
 0002:000004d4       __imp__htonl@4             004154d4     ws2_32:WS2_32.dll
 0002:000004d8       \177WS2_32_NULL_THUNK_DATA 004154d8     ws2_32:WS2_32.dll
 0002:000004dc       __imp__MiniDumpWriteDump@28 004154dc     dbghelp:dbghelp.dll
 0002:000004e0       \177dbghelp_NULL_THUNK_DATA 004154e0     dbghelp:dbghelp.dll
 0002:000004e4       __imp__GdipGetImageEncoders@12 004154e4     gdiplus:gdiplus.dll
 0002:000004e8       __imp__GdipGetImageEncodersSize@8 004154e8     gdiplus:gdiplus.dll
 0002:000004ec       __imp__GdipCreateBitmapFromFile@8 004154ec     gdiplus:gdiplus.dll
 0002:000004f0       __imp__GdipCreateBitmapFromHBITMAP@12 004154f0     gdiplus:gdiplus.dll
 0002:000004f4       __imp__GdipCloneBrush@8    004154f4     gdiplus:gdiplus.dll
 0002:000004f8       __imp__GdipDeleteBrush@4   004154f8     gdiplus:gdiplus.dll
 0002:000004fc       __imp__GdipCreateSolidFill@8 004154fc     gdiplus:gdiplus.dll
 0002:00000500       __imp__GdipDeleteFont@4    00415500     gdiplus:gdiplus.dll
 0002:00000504       __imp__GdipCreateFont@20   00415504     gdiplus:gdiplus.dll
 0002:00000508       __imp__GdipCreateFontFamilyFromName@12 00415508     gdiplus:gdiplus.dll
 0002:0000050c       __imp__GdipDrawString@28   0041550c     gdiplus:gdiplus.dll
 0002:00000510       __imp__GdipSaveImageToFile@16 00415510     gdiplus:gdiplus.dll
 0002:00000514       __imp__GdipCreateFromHDC@8 00415514     gdiplus:gdiplus.dll
 0002:00000518       __imp__GdipCreateBitmapFromStream@8 00415518     gdiplus:gdiplus.dll
 0002:0000051c       __imp__GdipGetImagePixelFormat@8 0041551c     gdiplus:gdiplus.dll
 0002:00000520       __imp__GdipGetImageHeight@8 00415520     gdiplus:gdiplus.dll
 0002:00000524       __imp__GdipGetImageWidth@8 00415524     gdiplus:gdiplus.dll
 0002:00000528       __imp__GdipGetImagePaletteSize@8 00415528     gdiplus:gdiplus.dll
 0002:0000052c       __imp__GdipGetImagePalette@12 0041552c     gdiplus:gdiplus.dll
 0002:00000530       __imp__GdipBitmapLockBits@20 00415530     gdiplus:gdiplus.dll
 0002:00000534       __imp__GdipBitmapUnlockBits@8 00415534     gdiplus:gdiplus.dll
 0002:00000538       __imp__GdipCreateBitmapFromScan0@24 00415538     gdiplus:gdiplus.dll
 0002:0000053c       __imp__GdipCloneImage@8    0041553c     gdiplus:gdiplus.dll
 0002:00000540       __imp__GdipAlloc@4         00415540     gdiplus:gdiplus.dll
 0002:00000544       __imp__GdipFree@4          00415544     gdiplus:gdiplus.dll
 0002:00000548       __imp__GdipDisposeImage@4  00415548     gdiplus:gdiplus.dll
 0002:0000054c       __imp__GdipGetImageGraphicsContext@8 0041554c     gdiplus:gdiplus.dll
 0002:00000550       __imp__GdipDeleteGraphics@4 00415550     gdiplus:gdiplus.dll
 0002:00000554       __imp__GdipDrawImageI@16   00415554     gdiplus:gdiplus.dll
 0002:00000558       __imp__GdiplusShutdown@4   00415558     gdiplus:gdiplus.dll
 0002:0000055c       __imp__GdiplusStartup@12   0041555c     gdiplus:gdiplus.dll
 0002:00000560       __imp__GdipDeleteFontFamily@4 00415560     gdiplus:gdiplus.dll
 0002:00000564       \177gdiplus_NULL_THUNK_DATA 00415564     gdiplus:gdiplus.dll
 0002:00000568       __imp__CreateStreamOnHGlobal@12 00415568     ole32:ole32.dll
 0002:0000056c       \177ole32_NULL_THUNK_DATA  0041556c     ole32:ole32.dll
 0002:00000570       ___xc_a                    00415570     MSVCRT:cinitexe.obj
 0002:000005cc       ___xc_z                    004155cc     MSVCRT:cinitexe.obj
 0002:000005d0       ___xi_a                    004155d0     MSVCRT:cinitexe.obj
 0002:000005e0       ___xi_z                    004155e0     MSVCRT:cinitexe.obj
 0002:0000060c       _GUID_NULL                 0041560c     uuid:cguid_i.obj
 0002:00000620       ??_7type_info@@6B@         00415620     MSVCRT:ti_inst.obj
 0002:0000062c       ??_7CWin32Heap@ATL@@6B@    0041562c     atls:atlstr.obj
 0002:00000640       ??_7CAtlStringMgr@ATL@@6B@ 00415640     atls:atlstr.obj
 0002:00000658       _GUID_ATLVer30             00415658     atls:atlbase.obj
 0002:00000668       _GUID_ATLVer70             00415668     atls:atlbase.obj
 0002:00000678       _GUID_ATLVer100            00415678     atls:atlbase.obj
 0002:00000688       _ImageFormatJPEG           00415688     gdiplus:imagingguds.obj
 0002:00000c98       ??_C@_01CLKCMJKC@?5?$AA@   00415c98     pugixml.obj
 0002:00000c9c       ??_C@_02DPKJAMEF@?$CFd?$AA@ 00415c9c     pugixml.obj
 0002:00000c9f       ??_C@_00CNPNBAHC@?$AA@     00415c9f     pugixml.obj
 0002:00000ca0       ??_C@_02JDPG@rb?$AA@       00415ca0     pugixml.obj
 0002:00000ca4       ??_C@_02GMLFBBN@wb?$AA@    00415ca4     pugixml.obj
 0002:00000ca8       ??_C@_0BA@JFNIOLAK@string?5too?5long?$AA@ 00415ca8     pugixml.obj
 0002:00000cb8       ??_C@_0BI@CFPLBAOH@invalid?5string?5position?$AA@ 00415cb8     pugixml.obj
 0002:00000cd4       ??_7bad_alloc@std@@6B@     00415cd4     pugixml.obj
 0002:00000ce0       ??_7CAuthenticate@@6B@     00415ce0     Authenticate.obj
 0002:00000ce4       ??_C@_03JBJLGPFL@end?$AA@  00415ce4     BlackList.obj
 0002:00000ce8       ??_C@_0BE@IBPEDIIJ@?$CFs?5Error?5De?5Lectura?$AA@ 00415ce8     BlackList.obj
 0002:00000cfc       ??_C@_06FCGCPEED@?$CFs?4bak?$AA@ 00415cfc     BlackList.obj
 0002:00000d04       ??_C@_01GBGANLPD@0?$AA@    00415d04     BlackList.obj
 0002:00000d08       ??_C@_01BJJEKLCA@?$CC?$AA@ 00415d08     BlackList.obj
 0002:00000d0c       ??_C@_01HIHLOKLC@1?$AA@    00415d0c     BlackList.obj
 0002:00000d10       ??_C@_0BD@OLBABOEK@vector?$DMT?$DO?5too?5long?$AA@ 00415d10     BlackList.obj
 0002:00000d2c       ??_7?$basic_filebuf@DU?$char_traits@D@std@@@std@@6B@ 00415d2c     BlackList.obj
 0002:00000d6c       ??_7?$basic_ofstream@DU?$char_traits@D@std@@@std@@6B@ 00415d6c     BlackList.obj
 0002:00000d74       ??_7CBlackList@@6B@        00415d74     BlackList.obj
 0002:00000d78       ??_C@_08EPJLHIJG@bad?5cast?$AA@ 00415d78     BlackList.obj
 0002:00000d84       ??_C@_0CD@HDMPEILL@?$FLClientManager?$FN?$FL?$CFd?$FN?5AddClient?5?$CI?$CF@ 00415d84     ClientManager.obj
 0002:00000da8       ??_C@_0CD@IHEEMECL@?$FLClientManager?$FN?$FL?$CFd?$FN?5DelClient?5?$CI?$CF@ 00415da8     ClientManager.obj
 0002:00000dcc       ??_C@_0DA@DCNIIOGP@?$FLClientManager?$FN?$FL?$CFd?$FN?5ClientInfo?5?$CI@ 00415dcc     ClientManager.obj
 0002:00000e00       ??_7CClientManager@@6B@    00415e00     ClientManager.obj
 0002:00000e0c       ??_7?$basic_stringbuf@DU?$char_traits@D@std@@V?$allocator@D@2@@std@@6B@ 00415e0c     computerHash.obj
 0002:00000e4c       ??_7?$basic_stringstream@DU?$char_traits@D@std@@V?$allocator@D@2@@std@@6B@ 00415e4c     computerHash.obj
 0002:00000e50       ??_8?$basic_stringstream@DU?$char_traits@D@std@@V?$allocator@D@2@@std@@7B?$basic_istream@DU?$char_traits@D@std@@@1@@ 00415e50     computerHash.obj
 0002:00000e50       ??_8?$basic_ofstream@DU?$char_traits@D@std@@@std@@7B@ 00415e50     BlackList.obj
 0002:00000e58       ??_8?$basic_stringstream@DU?$char_traits@D@std@@V?$allocator@D@2@@std@@7B?$basic_ostream@DU?$char_traits@D@std@@@1@@ 00415e58     computerHash.obj
 0002:00000e64       ??_7CCriticalSection@@6B@  00415e64     CriticalSection.obj
 0002:00000e68       ??_C@_0DB@BNBDJNPH@GET?5?$CFs?5HTTP?11?41?$AN?6Host?3?5?$CFs?$AN?6Conne@ 00415e68     FileDownloadHTTP.obj
 0002:00000e9c       ??_C@_08JAFHAICJ@HTTP?11?40?$AA@ 00415e9c     FileDownloadHTTP.obj
 0002:00000ea8       ??_C@_08IJEMDJGI@HTTP?11?41?$AA@ 00415ea8     FileDownloadHTTP.obj
 0002:00000eb4       ??_C@_03GACAABJG@?3?1?1?$AA@ 00415eb4     FileDownloadURL.obj
 0002:00000eb8       ??_C@_03LMDBDBEG@ftp?$AA@  00415eb8     FileDownloadURL.obj
 0002:00000ebc       ??_C@_01KMDKNFGN@?1?$AA@   00415ebc     FileDownloadURL.obj
 0002:00000ec0       ??_C@_0BA@PBBGDMDP@?4?2MHPServer?4ini?$AA@ 00415ec0     HackServer.obj
 0002:00000ed0       ??_C@_0O@NOELKLHH@MHPServerInfo?$AA@ 00415ed0     HackServer.obj
 0002:00000ee0       ??_C@_05HPIDIGDA@1?47?40?$AA@ 00415ee0     HackServer.obj
 0002:00000ee8       ??_C@_0CM@DGOACMGE@Antihack?5Server?5?$CIVersion?3?5?$CFs?$CJ?5?5?$CI@ 00415ee8     HackServer.obj
 0002:00000f14       ??_C@_0CD@EEEDCGMD@WSAStartup?$CI?$CJ?5failed?5with?5error?3?5@ 00415f14     HackServer.obj
 0002:00000f38       ??_C@_0BE@GHBIMHOA@Confirm?5Server?5Exit?$AA@ 00415f38     HackServer.obj
 0002:00000f4c       ??_C@_0CJ@PEIFHBLO@Are?5you?5sure?5you?5want?5to?5exit?5MH@ 00415f4c     HackServer.obj
 0002:00000f78       ??_C@_0BA@OIOIAGLE@?$CFd?5Banned?5Users?$AA@ 00415f78     HackServer.obj
 0002:00000f88       ??_C@_06PNALCGN@SCREEN?$AA@ 00415f88     HackServer.obj
 0002:00000f90       ??_C@_0O@IJGGEEB@SysListView32?$AA@ 00415f90     HackServer.obj
 0002:00000fa0       ??_C@_04FABLJDN@Name?$AA@  00415fa0     HackServer.obj
 0002:00000fa8       ??_C@_03POOIBDAP@PID?$AA@  00415fa8     HackServer.obj
 0002:00000fac       ??_C@_04HMIIHGGM@Path?$AA@ 00415fac     HackServer.obj
 0002:00000fb4       ??_C@_05NAOIJFC@Error?$AA@ 00415fb4     HackServer.obj
 0002:00000fbc       ??_C@_0BF@KBMMEMIE@No?5items?5in?5ListView?$AA@ 00415fbc     HackServer.obj
 0002:00000fd4       ??_C@_0CC@OCPCLIKB@Could?5not?5create?5ListView?5elemen@ 00415fd4     HackServer.obj
 0002:00000ff8       ??_C@_0N@OAECLGMI@Process?5List?$AA@ 00415ff8     HackServer.obj
 0002:00001008       ??_C@_0BK@FOOAIBAP@header?3?50x?$CFx?0?5ip_addr?3?5?$CFs?$AA@ 00416008     HackServerProtocol.obj
 0002:00001024       ??_C@_0BD@EGFBOHJM@Paquete?5Incorrecto?$AA@ 00416024     HackServerProtocol.obj
 0002:00001038       ??_C@_0P@JFOLCNLF@DUMP_DETECTION?$AA@ 00416038     HackServerProtocol.obj
 0002:00001048       ??_C@_0BF@MKJGMPLE@EXECUTABLE_DETECTION?$AA@ 00416048     HackServerProtocol.obj
 0002:00001060       ??_C@_0P@DIAHHCAM@FILE_DETECTION?$AA@ 00416060     HackServerProtocol.obj
 0002:00001070       ??_C@_0BH@GAHMJHAK@FILE_MAPPING_DETECTION?$AA@ 00416070     HackServerProtocol.obj
 0002:00001088       ??_C@_0BC@BCBGLHB@LIBRARY_DETECTION?$AA@ 00416088     HackServerProtocol.obj
 0002:0000109c       ??_C@_0BD@CONKPOKP@REGISTRY_DETECTION?$AA@ 0041609c     HackServerProtocol.obj
 0002:000010b0       ??_C@_0BB@FMCBIKAD@MEMORY_DETECTION?$AA@ 004160b0     HackServerProtocol.obj
 0002:000010c4       ??_C@_0BB@JKCBFLMB@WINDOW_DETECTION?$AA@ 004160c4     HackServerProtocol.obj
 0002:000010d8       ??_C@_0BA@MJLLBJJH@MACRO_DETECTION?$AA@ 004160d8     HackServerProtocol.obj
 0002:000010e8       ??_C@_0BD@HJMECIHL@DEBUGGER_DETECTION?$AA@ 004160e8     HackServerProtocol.obj
 0002:000010fc       ??_C@_0BC@KNBGAMGO@DEFAULT_DETECTION?$AA@ 004160fc     HackServerProtocol.obj
 0002:00001110       ??_C@_0GK@CPLCDGFK@?$FLHackDetected?$FN?$FL?$CFs?$FN?$FL?$CFs?$FN?5IpAddress@ 00416110     HackServerProtocol.obj
 0002:0000117c       ??_C@_0M@PCENNPGA@?$CFd?4?$CFd?4?$CFd?4?$CFd?$AA@ 0041617c     HelperPlayers.obj
 0002:00001188       ??_C@_0CA@NKANOPAD@XXXXXXX?9XXXXXXX?9XXXXXXX?9XXXXXXX?$AA@ 00416188     HelperPlayers.obj
 0002:000011a8       ??_C@_07JAEGOAMJ@?$CFd?$CJ?4?5?$CFs?$AA@ 004161a8     HelperPlayers.obj
 0002:000011b0       ??_C@_0O@HIDABEEO@BlackList?4txt?$AA@ 004161b0     HelperPlayers.obj
 0002:000011c0       ??_C@_0BD@NAKOGEGP@Could?5not?5get?5text?$AA@ 004161c0     HelperPlayers.obj
 0002:000011d4       ??_C@_0CP@KEIMFOIM@?$FLUserAccount?$FN?5Error?4?5Could?5not?5g@ 004161d4     HelperPlayers.obj
 0002:00001204       ??_C@_0CI@BOGBEGNM@Player?5Information?5?$CIConnected?5?$CFd@ 00416204     HelperPlayers.obj
 0002:0000122c       ??_C@_0N@KIGEFEPP@?$CFd?$CJ?4?5?$CFs?5?$FL?$CFd?$FN?$AA@ 0041622c     HelperPlayers.obj
 0002:0000123c       ??_C@_0CJ@CBJPIGCO@You?5do?5not?5have?5access?5to?5this?5f@ 0041623c     HelperPlayers.obj
 0002:00001268       ??_C@_0CG@CJNELEII@?$FLAccountInfo?$FN?5Error?4?5Index?5incor@ 00416268     HelperPlayers.obj
 0002:00001290       ??_C@_0FO@CLAEFMEI@?$KBLas?5Prohibiciones?5Temporales?5De@ 00416290     HidManager.obj
 0002:000012f4       ??_7CHidManager@@6B@       004162f4     HidManager.obj
 0002:000012f8       ??_C@_0BM@PAPJHAGI@invalid?5map?1set?$DMT?$DO?5iterator?$AA@ 004162f8     IpManager.obj
 0002:00001314       ??_C@_0BE@JONHPENG@map?1set?$DMT?$DO?5too?5long?$AA@ 00416314     IpManager.obj
 0002:0000132c       ??_7CIpManager@@6B@        0041632c     IpManager.obj
 0002:00001330       ??_C@_0BI@GMMPBNOK@?4?2?$CFs?2?$CF04d?9?$CF02d?9?$CF02d?4txt?$AA@ 00416330     Log.obj
 0002:00001348       ??_C@_0BE@KLKJJEKO@?$CF02d?3?$CF02d?3?$CF02d?5?$CFs?$AN?6?$AA@ 00416348     Log.obj
 0002:00001360       ??_7CLog@@6B@              00416360     Log.obj
 0002:00001364       ??_C@_02DKCKIIND@?$CFs?$AA@ 00416364     MemScript.obj
 0002:00001368       ??_C@_0BJ@EMPGHHOH@?$CFs?5Archivo?5No?5Encontrado?$AA@ 00416368     MemScript.obj
 0002:00001384       ??_C@_02EMFKHFLK@?$CFX?$AA@ 00416384     MemScript.obj
 0002:0000138c       ??_7CMemScript@@6B@        0041638c     MemScript.obj
 0002:00001390       ??_C@_01NBENCBCI@?$CK?$AA@ 00416390     MemScript.obj
 0002:00001394       ??_C@_0BH@IILLLNL@?$CFd?9?$CFd?9?$CFd_?$CFdh?$CFdm?$CFds?4dmp?$AA@ 00416394     MiniDump.obj
 0002:000013ac       ??_C@_09NJOACHAF@Downloads?$AA@ 004163ac     ProcessListInfo.obj
 0002:000013b8       ??_C@_0BC@CMEOCNJO@Total?5process?3?5?$CFd?$AA@ 004163b8     ProcessListInfo.obj
 0002:000013cc       ??_C@_04BEADLPGM@INFO?$AA@ 004163cc     ProcessListInfo.obj
 0002:000013d4       ??_C@_0CM@EIINAICP@Dump?5data?5successfully?5copied?5to@ 004163d4     ProcessListInfo.obj
 0002:00001400       ??_C@_0BG@KGEINCOD@Can?8t?5open?5clipboard?$CB?$AA@ 00416400     ProcessListInfo.obj
 0002:00001418       ??_C@_02NDKNKOCB@?3?6?$AA@ 00416418     ProcessListInfo.obj
 0002:0000141c       ??_C@_06BKKJGDHO@Window?$AA@ 0041641c     ProcessListInfo.obj
 0002:00001424       ??_C@_01EEMJAFIK@?6?$AA@   00416424     ProcessListInfo.obj
 0002:00001428       ??_C@_0N@MINGDDPH@WindowName?3?5?$AA@ 00416428     ProcessListInfo.obj
 0002:00001438       ??_C@_02PHMGELLB@?6?6?$AA@ 00416438     ProcessListInfo.obj
 0002:0000143c       ??_C@_0O@CDIIHCHH@WindowClass?3?5?$AA@ 0041643c     ProcessListInfo.obj
 0002:0000144c       ??_C@_0L@GGLNAGPA@Downloads?2?$AA@ 0041644c     ProcessListInfo.obj
 0002:00001458       ??_C@_0P@LHAHGELH@File?5is?5loaded?$AA@ 00416458     ProcessListInfo.obj
 0002:00001468       ??_C@_0O@PDEHOHG@MHPDetect?4dll?$AA@ 00416468     ProcessManager.obj
 0002:00001478       ??_C@_0P@FMNHLPJL@GameServer?4exe?$AA@ 00416478     ProcessManager.obj
 0002:00001488       ??_C@_0DN@ILLKHCLO@?$FLProcessManager?$FN?$FL?$CFd?$FN?$FL?$CFs?$FN?5?$KBNo?5se?5@ 00416488     ProcessManager.obj
 0002:000014c8       ??_C@_0DC@DDPHDOGI@?$FLProcessManager?$FN?$FL?$CFd?$FN?$FL?$CFs?$FN?5?$KBInicia@ 004164c8     ProcessManager.obj
 0002:000014fc       ??_C@_0N@LOMLCOFC@LoadLibraryA?$AA@ 004164fc     ProcessManager.obj
 0002:0000150c       ??_C@_08FGMADGLH@XTMPID?$CFd?$AA@ 0041650c     ProcessManager.obj
 0002:0000151c       ??_7CProcessManager@@6B@   0041651c     ProcessManager.obj
 0002:00001520       ??_C@_0N@MDJJJHMB@kernel32?4dll?$AA@ 00416520     ProcessManager.obj
 0002:00001530       ??_C@_04POHDAIJG@Auth?$AA@ 00416530     Protection.obj
 0002:00001538       ??_C@_04MKAEOIHP@OBBY?$AA@ 00416538     Protection.obj
 0002:00001544       ??_7CProtection@@6B@       00416544     Protection.obj
 0002:00001548       ??_C@_0BC@KBDMBKEH@deque?$DMT?$DO?5too?5long?$AA@ 00416548     Queue.obj
 0002:00001560       ??_7CQueue@@6B@            00416560     Queue.obj
 0002:00001564       ??_C@_0DL@MJPBJJHG@?$FLBase?5de?5datos?$FN?5Espere?5la?5actual@ 00416564     ReadFiles.obj
 0002:000015a0       ??_C@_0EA@KEFLMACO@?$FLBase?5de?5datos?$FN?5Espere?5a?5que?5se?5@ 004165a0     ReadFiles.obj
 0002:000015e0       ??_C@_0BN@EBEDDLDK@?4?2Data?2Internal?4List?4part?4db?$AA@ 004165e0     ReadFiles.obj
 0002:00001600       ??_C@_0BI@IBLGPMF@?4?2Data?2Internal?4List?4db?$AA@ 00416600     ReadFiles.obj
 0002:00001618       ??_C@_0DG@GMADOANB@?$FLDatabase?$FN?5No?5se?5pudo?5actualizar@ 00416618     ReadFiles.obj
 0002:00001650       ??_C@_0CJ@PEKLPFJL@?$FLBase?5de?5datos?$FN?5Actualizada?5exit@ 00416650     ReadFiles.obj
 0002:00001680       ??_7CReadFiles@@6B@        00416680     ReadFiles.obj
 0002:00001684       ??_C@_0M@LGMEACEF@ScreenShots?$AA@ 00416684     ScreenShot.obj
 0002:00001690       ??_C@_0DP@FFHHOOLC@ERROR?$CB?5?$KBLa?5longitud?5del?5b?zfer?5es@ 00416690     ScreenShot.obj
 0002:000016d0       ??_C@_1BK@IBJIDAPJ@?$AAA?$AAc?$AAc?$AAo?$AAu?$AAn?$AAt?$AA?3?$AA?5?$AA?$CF?$AAh?$AAs?$AA?$AA@ 004166d0     ScreenShot.obj
 0002:000016ec       ??_C@_1BE@HBDOOMOK@?$AAN?$AAa?$AAm?$AAe?$AA?3?$AA?5?$AA?$CF?$AAh?$AAs?$AA?$AA@ 004166ec     ScreenShot.obj
 0002:00001700       ??_C@_1CA@KIBCBGHH@?$AAI?$AAP?$AA?5?$AAA?$AAd?$AAd?$AAr?$AAe?$AAs?$AAs?$AA?3?$AA?5?$AA?$CF?$AAh?$AAs?$AA?$AA@ 00416700     ScreenShot.obj
 0002:00001720       ??_C@_1BE@JMPMDMFD@?$AAH?$AAw?$AAi?$AAd?$AA?3?$AA?5?$AA?$CF?$AAh?$AAs?$AA?$AA@ 00416720     ScreenShot.obj
 0002:00001734       ??_C@_1M@KAKMLIHO@?$AAA?$AAr?$AAi?$AAa?$AAl?$AA?$AA@ 00416734     ScreenShot.obj
 0002:00001740       ??_C@_0CP@KCGNANMK@ScreenShots?2?$CFs?9?$CFs?2?$CF04d?9?$CF02d?9?$CF02d@ 00416740     ScreenShot.obj
 0002:00001770       ??_C@_0BC@HIADGHMI@ScreenShots?2?$CFs?9?$CFs?$AA@ 00416770     ScreenShot.obj
 0002:00001784       ??_C@_13PJJBFPED@?$AA?$DL?$AA?$AA@ 00416784     ScreenShot.obj
 0002:0000178c       ??_7Brush@Gdiplus@@6B@     0041678c     ScreenShot.obj
 0002:00001798       ??_7Bitmap@Gdiplus@@6B@    00416798     ScreenShot.obj
 0002:000017a4       ??_7Image@Gdiplus@@6B@     004167a4     ScreenShot.obj
 0002:000017b0       ??_7SolidBrush@Gdiplus@@6B@ 004167b0     ScreenShot.obj
 0002:000017bc       ??_7CImage@ATL@@6B@        004167bc     ScreenShot.obj
 0002:000017c0       ??_C@_0EN@GMECDMBC@?$FLScreenShow?$FN?5?$KBERROR?$CB?5?$KBLa?5longitu@ 004167c0     ScreenShow.obj
 0002:00001810       ??_C@_08GAOCMOKB@logo?4png?$AA@ 00416810     ScreenShow.obj
 0002:00001820       ??_C@_1EA@OHAEOILL@?$AAF?$AAP?$AAS?$AA?3?$AA?5?$AA?$CF?$AAd?$AA?0?$AA?5?$AAC?$AAo?$AAn?$AAt?$AAe?$AAo?$AA?5?$AAd?$AAe?$AA?5?$AAp?$AAa?$AAn?$AAt?$AAa?$AAl?$AAl?$AAa?$AA?3?$AA?5?$AA?$CF?$AAd?$AA?$AA@ 00416820     ScreenShow.obj
 0002:00001860       ??_C@_1CM@ILPIDPKA@?$AAC?$AAa?$AAl?$AAi?$AAd?$AAa?$AAd?$AA?5?$AAd?$AAe?$AA?5?$AAi?$AAm?$AAa?$AAg?$AAe?$AAn?$AA?3?$AA?5?$AA?$CF?$AAd?$AA?$AA@ 00416860     ScreenShow.obj
 0002:0000188c       ??_C@_0N@JINNABAC@Mostrar?3?5?$CD?$CFd?$AA@ 0041688c     ScreenShow.obj
 0002:000018a0       ??_7CScreenShow@@6B@       004168a0     ScreenShow.obj
 0002:000018a4       ??_C@_05MOECANKB@Times?$AA@ 004168a4     ServerDisplayer.obj
 0002:000018ac       ??_C@_0N@OGFNLICO@CONEXION?5OFF?$AA@ 004168ac     ServerDisplayer.obj
 0002:000018bc       ??_C@_0O@BHGJCHAL@SERVER?5ACTIVO?$AA@ 004168bc     ServerDisplayer.obj
 0002:000018cc       ??_C@_03MLIHNEFJ@LOG?$AA@  004168cc     ServerDisplayer.obj
 0002:000018d0       ??_C@_0N@PGGOIJIB@LOG?2HACK_LOG?$AA@ 004168d0     ServerDisplayer.obj
 0002:000018e0       ??_C@_0DM@DOHDNKDK@Antihack?5Server?5?$CIVersion?3?5?$CFs?$CJ?5?5?$CI@ 004168e0     ServerDisplayer.obj
 0002:00001920       ??_7CServerDisplayer@@6B@  00416920     ServerDisplayer.obj
 0002:00001924       ??_C@_0BA@GGPBHHI@?4?2Data?2info?4xtm?$AA@ 00416924     ServerInfo.obj
 0002:00001934       ??_C@_0CJ@EEFLNNE@?$FLServerInfo?$FN?5Config?5Cargado?5Exit@ 00416934     ServerInfo.obj
 0002:00001960       ??_C@_0BE@KKEAOHDK@?4?2Data?2Dump?4List?4db?$AA@ 00416960     ServerInfo.obj
 0002:00001974       ??_C@_0CL@KOOLFEJB@?$FLServerInfo?$FN?5DumpList?5Cargado?5Ex@ 00416974     ServerInfo.obj
 0002:000019a0       ??_C@_0BI@DMDFEKDO@?4?2Data?2Checksum?4List?4db?$AA@ 004169a0     ServerInfo.obj
 0002:000019b8       ??_C@_0CP@BOKFPNKL@?$FLServerInfo?$FN?5ChecksumList?5Cargad@ 004169b8     ServerInfo.obj
 0002:000019e8       ??_C@_0CP@MPLNKHAF@?$FLServerInfo?$FN?5InternalList?5Cargad@ 004169e8     ServerInfo.obj
 0002:00001a18       ??_C@_0BG@MOKOINNO@?4?2Data?2Window?4List?4db?$AA@ 00416a18     ServerInfo.obj
 0002:00001a30       ??_C@_0CN@DBGDFBIO@?$FLServerInfo?$FN?5WindowList?5Cargado?5@ 00416a30     ServerInfo.obj
 0002:00001a60       ??_C@_0BA@LJOBOGNM@?4?2BlackList?4txt?$AA@ 00416a60     ServerInfo.obj
 0002:00001a70       ??_C@_0CM@OLJIKLPN@?$FLServerInfo?$FN?5BlackList?5Cargado?5E@ 00416a70     ServerInfo.obj
 0002:00001a9c       ??_C@_0N@LPMLCGKE@CustomerName?$AA@ 00416a9c     ServerInfo.obj
 0002:00001aac       ??_C@_0BD@OPHDIACD@CustomerHardwareId?$AA@ 00416aac     ServerInfo.obj
 0002:00001ac0       ??_C@_0O@LJBOPJNH@MHPServerPort?$AA@ 00416ac0     ServerInfo.obj
 0002:00001ad0       ??_C@_0BA@JDDAMLGO@MaxIpConnection?$AA@ 00416ad0     ServerInfo.obj
 0002:00001ae0       ??_C@_0L@NNDIJKLJ@EncDecKey1?$AA@ 00416ae0     ServerInfo.obj
 0002:00001aec       ??_C@_0L@PGBFMJHK@EncDecKey2?$AA@ 00416aec     ServerInfo.obj
 0002:00001af8       ??_C@_0BA@JMOPBCGJ@EncDecSetNumber?$AA@ 00416af8     ServerInfo.obj
 0002:00001b08       ??_C@_0O@DNEICACF@ClientVersion?$AA@ 00416b08     ServerInfo.obj
 0002:00001b18       ??_C@_0N@HCBNCEBN@ClientSerial?$AA@ 00416b18     ServerInfo.obj
 0002:00001b28       ??_C@_0BC@NNFEGJBC@DetectionLockTime?$AA@ 00416b28     ServerInfo.obj
 0002:00001b3c       ??_C@_0BB@GJJGDGCL@WriteProtocolLog?$AA@ 00416b3c     ServerInfo.obj
 0002:00001b50       ??_C@_0BA@KNDGCGML@InternalVersion?$AA@ 00416b50     ServerInfo.obj
 0002:00001b60       ??_C@_0BA@NOBAJADJ@ReconnectSwitch?$AA@ 00416b60     ServerInfo.obj
 0002:00001b70       ??_C@_0BC@KKNLIOHP@MemoryGuardSwitch?$AA@ 00416b70     ServerInfo.obj
 0002:00001b84       ??_C@_0BC@NFEIPKJA@MemoryGuardNumber?$AA@ 00416b84     ServerInfo.obj
 0002:00001b98       ??_C@_0BD@DJDGGNKP@MacroProtectSwitch?$AA@ 00416b98     ServerInfo.obj
 0002:00001bac       ??_C@_0BD@EGKFBJEA@MacroProtectNumber?$AA@ 00416bac     ServerInfo.obj
 0002:00001bc0       ??_C@_0P@LFEFEDNJ@MemoryAddress1?$AA@ 00416bc0     ServerInfo.obj
 0002:00001bd0       ??_C@_0P@JOGIBABK@MemoryAddress2?$AA@ 00416bd0     ServerInfo.obj
 0002:00001be0       ??_C@_0P@IHHDCBFL@MemoryAddress3?$AA@ 00416be0     ServerInfo.obj
 0002:00001bf0       ??_C@_0P@MIDCLHJM@MemoryAddress4?$AA@ 00416bf0     ServerInfo.obj
 0002:00001c00       ??_C@_0P@NBCJIGNN@MemoryAddress5?$AA@ 00416c00     ServerInfo.obj
 0002:00001c10       ??_C@_0P@PKAENFBO@MemoryAddress6?$AA@ 00416c10     ServerInfo.obj
 0002:00001c20       ??_C@_0P@ODBPOEFP@MemoryAddress7?$AA@ 00416c20     ServerInfo.obj
 0002:00001c30       ??_C@_0P@GEIHPIJA@MemoryAddress8?$AA@ 00416c30     ServerInfo.obj
 0002:00001c44       ??_7CServerInfo@@6B@       00416c44     ServerInfo.obj
 0002:00001c48       ??_C@_0DI@GOOFFMBM@El?5servidor?5?$FLSocketManager?$FN?5se?5i@ 00416c48     SocketManager.obj
 0002:00001c80       ??_C@_0DD@HMAKPMLA@?$FLSocketManager?$FN?5WSASocket?$CI?$CJ?5fall@ 00416c80     SocketManager.obj
 0002:00001cb4       ??_C@_0CO@NAEAAIBO@?$FLSocketManager?$FN?5bind?$CI?$CJ?5fall?s?5con@ 00416cb4     SocketManager.obj
 0002:00001ce4       ??_C@_0DD@NADKHJCN@?$FLSocketManager?$FN?5listening?$CI?$CJ?5fall@ 00416ce4     SocketManager.obj
 0002:00001d18       ??_C@_0DA@DGOOFFMO@?$FLSocketManager?$FN?5socket?$CI?$CJ?5fall?s?5c@ 00416d18     SocketManager.obj
 0002:00001d48       ??_C@_0EA@GDJGOIMN@?$FLSocketManager?$FN?5CreateIoCompleti@ 00416d48     SocketManager.obj
 0002:00001d88       ??_C@_0DG@EOLNEHOL@?$FLSocketManager?$FN?5CreateThread?$CI?$CJ?5f@ 00416d88     SocketManager.obj
 0002:00001dc0       ??_C@_0DL@BGAPLMIM@?$FLSocketManager?$FN?5SetThreadPriorit@ 00416dc0     SocketManager.obj
 0002:00001dfc       ??_C@_0DJ@ONHDANIA@?$FLSocketManager?$FN?5CreateSemaphore?$CI@ 00416dfc     SocketManager.obj
 0002:00001e38       ??_C@_0EO@PGCOLNJL@?$FLSocketManager?$FN?5Error?5de?5encabez@ 00416e38     SocketManager.obj
 0002:00001e88       ??_C@_0GE@JGAOKMIE@?$FLSocketManager?$FN?5Error?5de?5tama?qo?5@ 00416e88     SocketManager.obj
 0002:00001ef0       ??_C@_0EL@MDBGIFNN@?$FLSocketManager?$FN?5Tama?qo?5m?aximo?5de@ 00416ef0     SocketManager.obj
 0002:00001f40       ??_C@_0EL@HAICKIBO@?$FLSocketManager?$FN?5Tama?qo?5m?aximo?5de@ 00416f40     SocketManager.obj
 0002:00001f8c       ??_C@_0DB@HGBNMEH@?$FLSocketManager?$FN?5WSASend?$CI?$CJ?5fall?s?5@ 00416f8c     SocketManager.obj
 0002:00001fc0       ??_C@_0DF@GFAPHNPB@?$FLSocketManager?$FN?5closesocket?$CI?$CJ?5fa@ 00416fc0     SocketManager.obj
 0002:00001ff8       ??_C@_0DB@LCKAEDBJ@?$FLSocketManager?$FN?5WSARecv?$CI?$CJ?5fall?s?5@ 00416ff8     SocketManager.obj
 0002:0000202c       ??_C@_0DD@DGLGLHAC@?$FLSocketManager?$FN?5WSAAccept?$CI?$CJ?5fall@ 0041702c     SocketManager.obj
 0002:00002060       ??_C@_0ED@BOFOAICG@?$FLSocketManager?$FN?5GetQueuedComplet@ 00417060     SocketManager.obj
 0002:000020a4       ??_C@_0DN@CPMFGLFO@?$FLSocketManager?$FN?5WaitForSingleObj@ 004170a4     SocketManager.obj
 0002:000020e8       ??_7CSocketManager@@6B@    004170e8     SocketManager.obj
 0002:000020ec       ??_C@_0N@LDHBEHHJ@?$FL0123456789?$FN?$AA@ 004170ec     Util.obj
 0002:000020fc       ??_C@_07HIDEBALK@?$CF?48s?5?$CFs?$AA@ 004170fc     Util.obj
 0002:00002104       ??_C@_0BG@HGEDEDEC@invalid?5stoi?5argument?$AA@ 00417104     Util.obj
 0002:0000211c       ??_C@_0BL@MFFNMGGC@stoi?5argument?5out?5of?5range?$AA@ 0041711c     Util.obj
 0002:00002138       __real@bf800000            00417138      CIL library: CIL module
 0002:00002140       __real@4059000000000000    00417140      CIL library: CIL module
 0002:00002148       __real@4f800000            00417148      CIL library: CIL module
 0002:0000214c       __real@42440000            0041714c      CIL library: CIL module
 0002:00002150       __real@41f00000            00417150      CIL library: CIL module
 0002:00002154       __real@41800000            00417154      CIL library: CIL module
 0002:00002158       __real@42700000            00417158      CIL library: CIL module
 0002:0000215c       __real@42200000            0041715c      CIL library: CIL module
 0002:00002160       __real@41a00000            00417160      CIL library: CIL module
 0002:00002168       __load_config_used         00417168     MSVCRT:loadcfg.obj
 0002:00002214       ??_R4type_info@@6B@        00417214     MSVCRT:ti_inst.obj
 0002:00002228       ??_R3type_info@@8          00417228     MSVCRT:ti_inst.obj
 0002:00002238       ??_R2type_info@@8          00417238     MSVCRT:ti_inst.obj
 0002:00002240       ??_R1A@?0A@EA@type_info@@8 00417240     MSVCRT:ti_inst.obj
 0002:0000225c       ??_R4bad_alloc@std@@6B@    0041725c     pugixml.obj
 0002:00002270       ??_R3bad_alloc@std@@8      00417270     pugixml.obj
 0002:00002280       ??_R2bad_alloc@std@@8      00417280     pugixml.obj
 0002:0000228c       ??_R1A@?0A@EA@exception@std@@8 0041728c     pugixml.obj
 0002:000022a8       ??_R3exception@std@@8      004172a8     pugixml.obj
 0002:000022b8       ??_R2exception@std@@8      004172b8     pugixml.obj
 0002:000022c0       ??_R1A@?0A@EA@bad_alloc@std@@8 004172c0     pugixml.obj
 0002:000022dc       ??_R4CAuthenticate@@6B@    004172dc     Authenticate.obj
 0002:000022f0       ??_R3CAuthenticate@@8      004172f0     Authenticate.obj
 0002:00002300       ??_R2CAuthenticate@@8      00417300     Authenticate.obj
 0002:00002308       ??_R1A@?0A@EA@CAuthenticate@@8 00417308     Authenticate.obj
 0002:00002324       ??_R4CBlackList@@6B@       00417324     BlackList.obj
 0002:00002338       ??_R3CBlackList@@8         00417338     BlackList.obj
 0002:00002348       ??_R2CBlackList@@8         00417348     BlackList.obj
 0002:00002350       ??_R1A@?0A@EA@CBlackList@@8 00417350     BlackList.obj
 0002:0000236c       ??_R4?$basic_ofstream@DU?$char_traits@D@std@@@std@@6B@ 0041736c     BlackList.obj
 0002:00002380       ??_R3?$basic_ofstream@DU?$char_traits@D@std@@@std@@8 00417380     BlackList.obj
 0002:00002390       ??_R2?$basic_ofstream@DU?$char_traits@D@std@@@std@@8 00417390     BlackList.obj
 0002:000023a8       ??_R1A@?0A@EA@?$basic_ostream@DU?$char_traits@D@std@@@std@@8 004173a8     BlackList.obj
 0002:000023c4       ??_R3?$basic_ostream@DU?$char_traits@D@std@@@std@@8 004173c4     BlackList.obj
 0002:000023d4       ??_R2?$basic_ostream@DU?$char_traits@D@std@@@std@@8 004173d4     BlackList.obj
 0002:000023e8       ??_R17A@3EA@?$_Iosb@H@std@@8 004173e8     BlackList.obj
 0002:00002404       ??_R1A@A@3EA@ios_base@std@@8 00417404     BlackList.obj
 0002:00002420       ??_R1A@A@3FA@?$basic_ios@DU?$char_traits@D@std@@@std@@8 00417420     BlackList.obj
 0002:0000243c       ??_R3?$basic_ios@DU?$char_traits@D@std@@@std@@8 0041743c     BlackList.obj
 0002:0000244c       ??_R2?$basic_ios@DU?$char_traits@D@std@@@std@@8 0041744c     BlackList.obj
 0002:0000245c       ??_R1A@?0A@EA@ios_base@std@@8 0041745c     BlackList.obj
 0002:00002478       ??_R3ios_base@std@@8       00417478     BlackList.obj
 0002:00002488       ??_R2ios_base@std@@8       00417488     BlackList.obj
 0002:00002494       ??_R17?0A@EA@?$_Iosb@H@std@@8 00417494     BlackList.obj
 0002:000024b0       ??_R3?$_Iosb@H@std@@8      004174b0     BlackList.obj
 0002:000024c0       ??_R2?$_Iosb@H@std@@8      004174c0     BlackList.obj
 0002:000024c8       ??_R1A@?0A@EA@?$_Iosb@H@std@@8 004174c8     BlackList.obj
 0002:000024e4       ??_R1A@?0A@EA@?$basic_ios@DU?$char_traits@D@std@@@std@@8 004174e4     BlackList.obj
 0002:00002500       ??_R1A@?0A@EA@?$basic_ofstream@DU?$char_traits@D@std@@@std@@8 00417500     BlackList.obj
 0002:0000251c       ??_R4?$basic_filebuf@DU?$char_traits@D@std@@@std@@6B@ 0041751c     BlackList.obj
 0002:00002530       ??_R3?$basic_filebuf@DU?$char_traits@D@std@@@std@@8 00417530     BlackList.obj
 0002:00002540       ??_R2?$basic_filebuf@DU?$char_traits@D@std@@@std@@8 00417540     BlackList.obj
 0002:0000254c       ??_R1A@?0A@EA@?$basic_streambuf@DU?$char_traits@D@std@@@std@@8 0041754c     BlackList.obj
 0002:00002568       ??_R3?$basic_streambuf@DU?$char_traits@D@std@@@std@@8 00417568     BlackList.obj
 0002:00002578       ??_R2?$basic_streambuf@DU?$char_traits@D@std@@@std@@8 00417578     BlackList.obj
 0002:00002580       ??_R1A@?0A@EA@?$basic_filebuf@DU?$char_traits@D@std@@@std@@8 00417580     BlackList.obj
 0002:0000259c       ??_R4CClientManager@@6B@   0041759c     ClientManager.obj
 0002:000025b0       ??_R3CClientManager@@8     004175b0     ClientManager.obj
 0002:000025c0       ??_R2CClientManager@@8     004175c0     ClientManager.obj
 0002:000025c8       ??_R1A@?0A@EA@CClientManager@@8 004175c8     ClientManager.obj
 0002:000025e4       ??_R4?$basic_stringstream@DU?$char_traits@D@std@@V?$allocator@D@2@@std@@6B@ 004175e4     computerHash.obj
 0002:000025f8       ??_R3?$basic_stringstream@DU?$char_traits@D@std@@V?$allocator@D@2@@std@@8 004175f8     computerHash.obj
 0002:00002608       ??_R2?$basic_stringstream@DU?$char_traits@D@std@@V?$allocator@D@2@@std@@8 00417608     computerHash.obj
 0002:00002634       ??_R1A@?0A@EA@?$basic_iostream@DU?$char_traits@D@std@@@std@@8 00417634     computerHash.obj
 0002:00002650       ??_R3?$basic_iostream@DU?$char_traits@D@std@@@std@@8 00417650     computerHash.obj
 0002:00002660       ??_R2?$basic_iostream@DU?$char_traits@D@std@@@std@@8 00417660     computerHash.obj
 0002:00002688       ??_R1BA@?0A@EA@?$basic_ostream@DU?$char_traits@D@std@@@std@@8 00417688     computerHash.obj
 0002:000026a4       ??_R1A@?0A@EA@?$basic_istream@DU?$char_traits@D@std@@@std@@8 004176a4     computerHash.obj
 0002:000026c0       ??_R3?$basic_istream@DU?$char_traits@D@std@@@std@@8 004176c0     computerHash.obj
 0002:000026d0       ??_R2?$basic_istream@DU?$char_traits@D@std@@@std@@8 004176d0     computerHash.obj
 0002:000026e4       ??_R1A@?0A@EA@?$basic_stringstream@DU?$char_traits@D@std@@V?$allocator@D@2@@std@@8 004176e4     computerHash.obj
 0002:00002700       ??_R4?$basic_stringbuf@DU?$char_traits@D@std@@V?$allocator@D@2@@std@@6B@ 00417700     computerHash.obj
 0002:00002714       ??_R3?$basic_stringbuf@DU?$char_traits@D@std@@V?$allocator@D@2@@std@@8 00417714     computerHash.obj
 0002:00002724       ??_R2?$basic_stringbuf@DU?$char_traits@D@std@@V?$allocator@D@2@@std@@8 00417724     computerHash.obj
 0002:00002730       ??_R1A@?0A@EA@?$basic_stringbuf@DU?$char_traits@D@std@@V?$allocator@D@2@@std@@8 00417730     computerHash.obj
 0002:0000274c       ??_R4CCriticalSection@@6B@ 0041774c     CriticalSection.obj
 0002:00002760       ??_R3CCriticalSection@@8   00417760     CriticalSection.obj
 0002:00002770       ??_R2CCriticalSection@@8   00417770     CriticalSection.obj
 0002:00002778       ??_R1A@?0A@EA@CCriticalSection@@8 00417778     CriticalSection.obj
 0002:00002794       ??_R4CHidManager@@6B@      00417794     HidManager.obj
 0002:000027a8       ??_R3CHidManager@@8        004177a8     HidManager.obj
 0002:000027b8       ??_R2CHidManager@@8        004177b8     HidManager.obj
 0002:000027c0       ??_R1A@?0A@EA@CHidManager@@8 004177c0     HidManager.obj
 0002:000027dc       ??_R4CIpManager@@6B@       004177dc     IpManager.obj
 0002:000027f0       ??_R3CIpManager@@8         004177f0     IpManager.obj
 0002:00002800       ??_R2CIpManager@@8         00417800     IpManager.obj
 0002:00002808       ??_R1A@?0A@EA@CIpManager@@8 00417808     IpManager.obj
 0002:00002824       ??_R4CLog@@6B@             00417824     Log.obj
 0002:00002838       ??_R3CLog@@8               00417838     Log.obj
 0002:00002848       ??_R2CLog@@8               00417848     Log.obj
 0002:00002850       ??_R1A@?0A@EA@CLog@@8      00417850     Log.obj
 0002:0000286c       ??_R4CMemScript@@6B@       0041786c     MemScript.obj
 0002:00002880       ??_R3CMemScript@@8         00417880     MemScript.obj
 0002:00002890       ??_R2CMemScript@@8         00417890     MemScript.obj
 0002:00002898       ??_R1A@?0A@EA@CMemScript@@8 00417898     MemScript.obj
 0002:000028b4       ??_R4CProcessManager@@6B@  004178b4     ProcessManager.obj
 0002:000028c8       ??_R3CProcessManager@@8    004178c8     ProcessManager.obj
 0002:000028d8       ??_R2CProcessManager@@8    004178d8     ProcessManager.obj
 0002:000028e0       ??_R1A@?0A@EA@CProcessManager@@8 004178e0     ProcessManager.obj
 0002:000028fc       ??_R4CProtection@@6B@      004178fc     Protection.obj
 0002:00002910       ??_R3CProtection@@8        00417910     Protection.obj
 0002:00002920       ??_R2CProtection@@8        00417920     Protection.obj
 0002:00002928       ??_R1A@?0A@EA@CProtection@@8 00417928     Protection.obj
 0002:00002944       ??_R4CQueue@@6B@           00417944     Queue.obj
 0002:00002958       ??_R3CQueue@@8             00417958     Queue.obj
 0002:00002968       ??_R2CQueue@@8             00417968     Queue.obj
 0002:00002970       ??_R1A@?0A@EA@CQueue@@8    00417970     Queue.obj
 0002:0000298c       ??_R4CReadFiles@@6B@       0041798c     ReadFiles.obj
 0002:000029a0       ??_R3CReadFiles@@8         004179a0     ReadFiles.obj
 0002:000029b0       ??_R2CReadFiles@@8         004179b0     ReadFiles.obj
 0002:000029b8       ??_R1A@?0A@EA@CReadFiles@@8 004179b8     ReadFiles.obj
 0002:000029d4       ??_R4CImage@ATL@@6B@       004179d4     ScreenShot.obj
 0002:000029e8       ??_R3CImage@ATL@@8         004179e8     ScreenShot.obj
 0002:000029f8       ??_R2CImage@ATL@@8         004179f8     ScreenShot.obj
 0002:00002a00       ??_R1A@?0A@EA@CImage@ATL@@8 00417a00     ScreenShot.obj
 0002:00002a1c       ??_R4SolidBrush@Gdiplus@@6B@ 00417a1c     ScreenShot.obj
 0002:00002a30       ??_R3SolidBrush@Gdiplus@@8 00417a30     ScreenShot.obj
 0002:00002a40       ??_R2SolidBrush@Gdiplus@@8 00417a40     ScreenShot.obj
 0002:00002a50       ??_R1A@?0A@EA@SolidBrush@Gdiplus@@8 00417a50     ScreenShot.obj
 0002:00002a6c       ??_R4Image@Gdiplus@@6B@    00417a6c     ScreenShot.obj
 0002:00002a80       ??_R4Bitmap@Gdiplus@@6B@   00417a80     ScreenShot.obj
 0002:00002a94       ??_R3Bitmap@Gdiplus@@8     00417a94     ScreenShot.obj
 0002:00002aa4       ??_R2Bitmap@Gdiplus@@8     00417aa4     ScreenShot.obj
 0002:00002ab4       ??_R1A@?0A@EA@Image@Gdiplus@@8 00417ab4     ScreenShot.obj
 0002:00002ad0       ??_R3Image@Gdiplus@@8      00417ad0     ScreenShot.obj
 0002:00002ae0       ??_R2Image@Gdiplus@@8      00417ae0     ScreenShot.obj
 0002:00002aec       ??_R1A@?0A@EA@Bitmap@Gdiplus@@8 00417aec     ScreenShot.obj
 0002:00002b08       ??_R4Brush@Gdiplus@@6B@    00417b08     ScreenShot.obj
 0002:00002b1c       ??_R3Brush@Gdiplus@@8      00417b1c     ScreenShot.obj
 0002:00002b2c       ??_R2Brush@Gdiplus@@8      00417b2c     ScreenShot.obj
 0002:00002b38       ??_R13?0A@EA@GdiplusBase@Gdiplus@@8 00417b38     ScreenShot.obj
 0002:00002b54       ??_R3GdiplusBase@Gdiplus@@8 00417b54     ScreenShot.obj
 0002:00002b64       ??_R2GdiplusBase@Gdiplus@@8 00417b64     ScreenShot.obj
 0002:00002b6c       ??_R1A@?0A@EA@GdiplusBase@Gdiplus@@8 00417b6c     ScreenShot.obj
 0002:00002b88       ??_R1A@?0A@EA@Brush@Gdiplus@@8 00417b88     ScreenShot.obj
 0002:00002ba4       ??_R4CScreenShow@@6B@      00417ba4     ScreenShow.obj
 0002:00002bb8       ??_R3CScreenShow@@8        00417bb8     ScreenShow.obj
 0002:00002bc8       ??_R2CScreenShow@@8        00417bc8     ScreenShow.obj
 0002:00002bd0       ??_R1A@?0A@EA@CScreenShow@@8 00417bd0     ScreenShow.obj
 0002:00002bec       ??_R4CServerDisplayer@@6B@ 00417bec     ServerDisplayer.obj
 0002:00002c00       ??_R3CServerDisplayer@@8   00417c00     ServerDisplayer.obj
 0002:00002c10       ??_R2CServerDisplayer@@8   00417c10     ServerDisplayer.obj
 0002:00002c18       ??_R1A@?0A@EA@CServerDisplayer@@8 00417c18     ServerDisplayer.obj
 0002:00002c34       ??_R4CServerInfo@@6B@      00417c34     ServerInfo.obj
 0002:00002c48       ??_R3CServerInfo@@8        00417c48     ServerInfo.obj
 0002:00002c58       ??_R2CServerInfo@@8        00417c58     ServerInfo.obj
 0002:00002c60       ??_R1A@?0A@EA@CServerInfo@@8 00417c60     ServerInfo.obj
 0002:00002c7c       ??_R4CSocketManager@@6B@   00417c7c     SocketManager.obj
 0002:00002c90       ??_R3CSocketManager@@8     00417c90     SocketManager.obj
 0002:00002ca0       ??_R2CSocketManager@@8     00417ca0     SocketManager.obj
 0002:00002ca8       ??_R1A@?0A@EA@CSocketManager@@8 00417ca8     SocketManager.obj
 0002:00002cd0       ___safe_se_handler_table   00417cd0     <linker-defined>
 0002:00002db4       ___rtc_iaa                 00417db4     MSVCRT:_initsect_.obj
 0002:00002db8       ___rtc_izz                 00417db8     MSVCRT:_initsect_.obj
 0002:00002dbc       ___rtc_taa                 00417dbc     MSVCRT:_initsect_.obj
 0002:00002dc0       ___rtc_tzz                 00417dc0     MSVCRT:_initsect_.obj
 0002:00002eb4       __CT??_R0?AVexception@std@@@8??0exception@std@@QAE@ABV01@@Z12 00417eb4     pugixml.obj
 0002:00002ed0       __CT??_R0?AVbad_alloc@std@@@8??0bad_alloc@std@@QAE@ABV01@@Z12 00417ed0     pugixml.obj
 0002:00002eec       __CTA2?AVbad_alloc@std@@   00417eec     pugixml.obj
 0002:00002ef8       __TI2?AVbad_alloc@std@@    00417ef8     pugixml.obj
 0002:00002f08       __CT??_R0?AVbad_cast@std@@@8??0bad_cast@std@@QAE@ABV01@@Z12 00417f08     BlackList.obj
 0002:00002f24       __CTA2?AVbad_cast@std@@    00417f24     BlackList.obj
 0002:00002f30       __TI2?AVbad_cast@std@@     00417f30     BlackList.obj
 0002:00002f40       __CT??_R0H@84              00417f40     MemScript.obj
 0002:00002f5c       __CTA1H                    00417f5c     MemScript.obj
 0002:00002f64       __TI1H                     00417f64     MemScript.obj
 0002:00002f74       __CT??_R0?AVCAtlException@ATL@@@84 00417f74     ScreenShot.obj
 0002:00002f90       __CTA1?AVCAtlException@ATL@@ 00417f90     ScreenShot.obj
 0002:00002f98       __TI1?AVCAtlException@ATL@@ 00417f98     ScreenShot.obj
 0002:00003dd8       __IMPORT_DESCRIPTOR_KERNEL32 00418dd8     kernel32:KERNEL32.dll
 0002:00003dec       __IMPORT_DESCRIPTOR_USER32 00418dec     user32:USER32.dll
 0002:00003e00       __IMPORT_DESCRIPTOR_GDI32  00418e00     gdi32:GDI32.dll
 0002:00003e14       __IMPORT_DESCRIPTOR_ole32  00418e14     ole32:ole32.dll
 0002:00003e28       __IMPORT_DESCRIPTOR_MSVCP100 00418e28     msvcprt:MSVCP100.dll
 0002:00003e3c       __IMPORT_DESCRIPTOR_MSVCR100 00418e3c     MSVCRT:MSVCR100.dll
 0002:00003e50       __IMPORT_DESCRIPTOR_SHLWAPI 00418e50     shlwapi:SHLWAPI.dll
 0002:00003e64       __IMPORT_DESCRIPTOR_gdiplus 00418e64     gdiplus:gdiplus.dll
 0002:00003e78       __IMPORT_DESCRIPTOR_MSIMG32 00418e78     msimg32:MSIMG32.dll
 0002:00003e8c       __IMPORT_DESCRIPTOR_VMProtectSDK32 00418e8c     VMProtectSDK32:VMProtectSDK32.dll
 0002:00003ea0       __IMPORT_DESCRIPTOR_COMCTL32 00418ea0     comctl32:COMCTL32.dll
 0002:00003eb4       __IMPORT_DESCRIPTOR_WS2_32 00418eb4     ws2_32:WS2_32.dll
 0002:00003ec8       __IMPORT_DESCRIPTOR_PSAPI  00418ec8     Psapi:PSAPI.DLL
 0002:00003edc       __IMPORT_DESCRIPTOR_dbghelp 00418edc     dbghelp:dbghelp.dll
 0002:00003ef0       __NULL_IMPORT_DESCRIPTOR   00418ef0     kernel32:KERNEL32.dll
 0003:00000000       ??_R0?AVtype_info@@@8      0041c000     MSVCRT:ti_inst.obj
 0003:00000018       ___security_cookie         0041c018     MSVCRT:gs_cookie.obj
 0003:0000001c       ___security_cookie_complement 0041c01c     MSVCRT:gs_cookie.obj
 0003:00000020       ___native_dllmain_reason   0041c020     MSVCRT:natstart.obj
 0003:00000024       ___native_vcclrit_reason   0041c024     MSVCRT:natstart.obj
 0003:00000028       ___globallocalestatus      0041c028     MSVCRT:xthdloc.obj
 0003:0000002c       ___defaultmatherr          0041c02c     MSVCRT:merr.obj
 0003:00000030       ?g_strmgr@ATL@@3VCAtlStringMgr@1@A 0041c030     atls:atlstr.obj
 0003:0000004c       ??_R0?AVexception@std@@@8  0041c04c     pugixml.obj
 0003:00000068       ??_R0?AVbad_alloc@std@@@8  0041c068     pugixml.obj
 0003:00000084       ??_R0?AVCAuthenticate@@@8  0041c084     Authenticate.obj
 0003:000000a0       ??_R0?AVCBlackList@@@8     0041c0a0     BlackList.obj
 0003:000000bc       ??_R0?AV?$_Iosb@H@std@@@8  0041c0bc     BlackList.obj
 0003:000000d8       ??_R0?AVios_base@std@@@8   0041c0d8     BlackList.obj
 0003:000000f4       ??_R0?AV?$basic_ios@DU?$char_traits@D@std@@@std@@@8 0041c0f4     BlackList.obj
 0003:0000012c       ??_R0?AV?$basic_ostream@DU?$char_traits@D@std@@@std@@@8 0041c12c     BlackList.obj
 0003:00000168       ??_R0?AV?$basic_ofstream@DU?$char_traits@D@std@@@std@@@8 0041c168     BlackList.obj
 0003:000001a4       ??_R0?AV?$basic_streambuf@DU?$char_traits@D@std@@@std@@@8 0041c1a4     BlackList.obj
 0003:000001e0       ??_R0?AV?$basic_filebuf@DU?$char_traits@D@std@@@std@@@8 0041c1e0     BlackList.obj
 0003:0000021c       ??_R0?AVbad_cast@std@@@8   0041c21c     BlackList.obj
 0003:00000238       ??_R0?AVCClientManager@@@8 0041c238     ClientManager.obj
 0003:00000258       ??_R0?AV?$basic_istream@DU?$char_traits@D@std@@@std@@@8 0041c258     computerHash.obj
 0003:00000294       ??_R0?AV?$basic_iostream@DU?$char_traits@D@std@@@std@@@8 0041c294     computerHash.obj
 0003:000002d0       ??_R0?AV?$basic_stringstream@DU?$char_traits@D@std@@V?$allocator@D@2@@std@@@8 0041c2d0     computerHash.obj
 0003:00000320       ??_R0?AV?$basic_stringbuf@DU?$char_traits@D@std@@V?$allocator@D@2@@std@@@8 0041c320     computerHash.obj
 0003:00000370       ??_R0?AVCCriticalSection@@@8 0041c370     CriticalSection.obj
 0003:00000c90       ?gAuthenticate@@3VCAuthenticate@@A 0041cc90     Authenticate.obj
 0003:00004cc8       ?gBlackList@@3VCBlackList@@A 00420cc8     BlackList.obj
 0003:00004cec       ?gHidManager@@3VCHidManager@@A 00420cec     HidManager.obj
 0003:00004d00       ?gIpManager@@3VCIpManager@@A 00420d00     IpManager.obj
 0003:00004d18       ?gLog@@3VCLog@@A           00420d18     Log.obj
 0003:00005148       ?gReadFiles@@3VCReadFiles@@A 00421148     ReadFiles.obj
 0003:00005190       ?gServerInfo@@3VCServerInfo@@A 00421190     ServerInfo.obj
 0003:0000524c       ??_R0?AVCHidManager@@@8    0042124c     HidManager.obj
 0003:00005268       ??_R0?AVCIpManager@@@8     00421268     IpManager.obj
 0003:00005284       ??_R0?AVCLog@@@8           00421284     Log.obj
 0003:00005298       ??_R0?AVCMemScript@@@8     00421298     MemScript.obj
 0003:000052b4       ??_R0H@8                   004212b4     MemScript.obj
 0003:000052c0       ??_R0?AVCProcessManager@@@8 004212c0     ProcessManager.obj
 0003:000052e0       ??_R0?AVCProtection@@@8    004212e0     Protection.obj
 0003:000052fc       ??_R0?AVCQueue@@@8         004212fc     Queue.obj
 0003:00005314       ??_R0?AVCReadFiles@@@8     00421314     ReadFiles.obj
 0003:00005330       ??_R0?AVCImage@ATL@@@8     00421330     ScreenShot.obj
 0003:0000534c       ??_R0?AVSolidBrush@Gdiplus@@@8 0042134c     ScreenShot.obj
 0003:00005370       ??_R0?AVImage@Gdiplus@@@8  00421370     ScreenShot.obj
 0003:0000538c       ??_R0?AVBitmap@Gdiplus@@@8 0042138c     ScreenShot.obj
 0003:000053ac       ??_R0?AVGdiplusBase@Gdiplus@@@8 004213ac     ScreenShot.obj
 0003:000053d0       ??_R0?AVBrush@Gdiplus@@@8  004213d0     ScreenShot.obj
 0003:000053ec       ??_R0?AVCAtlException@ATL@@@8 004213ec     ScreenShot.obj
 0003:0000540c       ??_R0?AVCScreenShow@@@8    0042140c     ScreenShow.obj
 0003:00005428       ??_R0?AVCServerDisplayer@@@8 00421428     ServerDisplayer.obj
 0003:00005448       ??_R0?AVCServerInfo@@@8    00421448     ServerInfo.obj
 0003:00005464       ??_R0?AVCSocketManager@@@8 00421464     SocketManager.obj
 0003:000057dc       __dowildcard               004217dc     MSVCRT:wildcard.obj
 0003:000057e0       __newmode                  004217e0     MSVCRT:_newmode.obj
 0003:000057e4       __commode                  004217e4     MSVCRT:xncommod.obj
 0003:000057e8       __fmode                    004217e8     MSVCRT:xtxtmode.obj
 0003:000057ec       ?s_initGDIPlus@CImage@ATL@@0VCInitGDIPlus@12@A 004217ec     atls:atlimage2.obj
 0003:00005810       ?s_cache@CImage@ATL@@0VCDCCache@12@A 00421810     atls:atlimage.obj
 0003:00005820       ?g_strheap@ATL@@3VCWin32Heap@1@A 00421820     atls:atlstr.obj
 0003:0000582c       ?_AtlBaseModule@ATL@@3VCAtlBaseModule@1@A 0042182c     atls:atlbase.obj
 0003:00005864       ?_Stinit@?1??_Init@?$basic_filebuf@DU?$char_traits@D@std@@@std@@IAEXPAU_iobuf@@W4_Initfl@23@@Z@4HA 00421864     BlackList.obj
 0003:00005868       ?_Psave@?$_Facetptr@V?$codecvt@DDH@std@@@std@@2PBVfacet@locale@2@B 00421868     BlackList.obj
 0003:00005870       ?ProcessListWnd@@3PAUHWND__@@A 00421870     HackServer.obj
 0003:00005874       ?ScreenWnd@@3PAUHWND__@@A  00421874     HackServer.obj
 0003:00005878       ?hWnd@@3PAUHWND__@@A       00421878     HackServer.obj
 0003:0000587c       ?hInst@@3PAUHINSTANCE__@@A 0042187c     HackServer.obj
 0003:00005880       ?szChildClass@@3PADA       00421880     HackServer.obj
 0003:000058e4       ___@@_PchSym_@00@UuobnfUuobnfUnskLgllohUhlfixvUszxphvieviUszxphvieviUszxphvieviUivovzhvUhgwzucOlyq@ 004218e4     stdafx.obj
 0003:000058e8       ?szChildTitle@@3PADA       004218e8     HackServer.obj
 0003:00005950       ?szWindowClass@@3PADA      00421950     HackServer.obj
 0003:000059b8       ?szTitle@@3PADA            004219b8     HackServer.obj
 0003:00005a1c       ?_httpErrorCode@@3HA       00421a1c     FileDownloadHTTP.obj
 0003:00005a20       ?PreviousExceptionFilter@@3P6GJPAU_EXCEPTION_POINTERS@@@ZA 00421a20     MiniDump.obj
 0003:00005a4c       ?gClientCount@@3HA         00421a4c     Util.obj
 0003:00005a50       ?gClientManager@@3PAVCClientManager@@A 00421a50     ClientManager.obj
 0003:000897b0       ?gHelperPlayers@@3VCHelperPlayers@@A 004a57b0     HelperPlayers.obj
 0003:000897b8       ?gProcessListInfo@@3VCProcessListInfo@@A 004a57b8     ProcessListInfo.obj
 0003:000897fc       ?gProcessManager@@3VCProcessManager@@A 004a57fc     ProcessManager.obj
 0003:00089830       ?gProtection@@3VCProtection@@A 004a5830     Protection.obj
 0003:00089a08       ?gScreenShot@@3VCScreenShot@@A 004a5a08     ScreenShot.obj
 0003:00089a30       ?gScreenShow@@3VCScreenShow@@A 004a5a30     ScreenShow.obj
 0003:00089a98       ?gServerDisplayer@@3VCServerDisplayer@@A 004a5a98     ServerDisplayer.obj
 0003:0008a510       ?gSocketManager@@3VCSocketManager@@A 004a6510     SocketManager.obj
 0003:0008a5b0       ?m_bInitFailed@CAtlBaseModule@ATL@@2_NA 004a65b0     stdafx.obj
 0003:0018a5c8       ___sse2_available          005a65c8     <common>
 0003:0018a5cc       ___native_startup_state    005a65cc     <common>
 0003:0018a5d0       ___native_startup_lock     005a65d0     <common>
 0003:0018a5d4       __NoHeapEnableTerminationOnCorruption 005a65d4     <common>
 0003:0018a5d8       ___dyn_tls_init_callback   005a65d8     <common>
 0003:0018a5dc       ___onexitend               005a65dc     <common>
 0003:0018a5e0       ___onexitbegin             005a65e0     <common>

 entry point at        0001:0001232c

 Static symbols

 0001:000003b3       __catch$?_Copy@?$basic_string@DU?$char_traits@D@std@@V?$allocator@D@2@@std@@QAEXII@Z$0 004013b3 f i  CIL library: CIL module
 0001:00000437       __catch$?_Copy@?$basic_string@DU?$char_traits@D@std@@V?$allocator@D@2@@std@@QAEXII@Z$1 00401437 f i  CIL library: CIL module
 0001:000006eb       __catch$?SetList@CBlackList@@QAEXPAD@Z$0 004016eb f    CIL library: CIL module
 0001:00001d17       __catch$?reserve@?$vector@UBLACKLIST_IPADDR_INFO@@V?$allocator@UBLACKLIST_IPADDR_INFO@@@std@@@std@@QAEXI@Z$0 00402d17 f i  CIL library: CIL module
 0001:00001e01       __catch$?reserve@?$vector@UBLACKLIST_HARDID_INFO@@V?$allocator@UBLACKLIST_HARDID_INFO@@@std@@@std@@QAEXI@Z$0 00402e01 f i  CIL library: CIL module
 0001:00002104       __catch$??$?6U?$char_traits@D@std@@@std@@YAAAV?$basic_ostream@DU?$char_traits@D@std@@@0@AAV10@PBD@Z$0 00403104 f i  CIL library: CIL module
 0001:00006121       __catch$?reserve@?$vector@UHARDWARE_ID_INFO@@V?$allocator@UHARDWARE_ID_INFO@@@std@@@std@@QAEXI@Z$0 00407121 f i  CIL library: CIL module
 0001:000070ad       __catch$??$_Buynode@U?$pair@V?$basic_string@DU?$char_traits@D@std@@V?$allocator@D@2@@std@@UIP_ADDRESS_INFO@@@std@@@?$_Tree_val@V?$_Tmap_traits@V?$basic_string@DU?$char_traits@D@std@@V?$allocator@D@2@@std@@UIP_ADDRESS_INFO@@U?$less@V?$basic_string@DU?$char_traits@D@std@@V?$allocator@D@2@@std@@@2@V?$allocator@U?$pair@$$CBV?$basic_string@DU?$char_traits@D@std@@V?$allocator@D@2@@std@@UIP_ADDRESS_INFO@@@std@@@2@$0A@@std@@@std@@QAEPAU_Node@?$_Tree_nod@V?$_Tmap_traits@V?$basic_string@DU?$char_traits@D@std@@V?$allocator@D@2@@std@@UIP_ADDRESS_INFO@@U?$less@V?$basic_string@DU?$char_traits@D@std@@V?$allocator@D@2@@std@@@2@V?$allocator@U?$pair@$$CBV?$basic_string@DU?$char_traits@D@std@@V?$allocator@D@2@@std@@UIP_ADDRESS_INFO@@@std@@@2@$0A@@std@@@1@$$QAU?$pair@V?$basic_string@DU?$char_traits@D@std@@V?$allocator@D@2@@std@@UIP_ADDRESS_INFO@@@1@@Z$0 004080ad f i  CIL library: CIL module
 0001:000086eb       __catch$?reserve@?$vector@UPROCESS_INFO_DATA@@V?$allocator@UPROCESS_INFO_DATA@@@std@@@std@@QAEXI@Z$0 004096eb f i  CIL library: CIL module
 0001:0000ab5f       __catch$?DumpList@CReadFiles@@QAEXPAD@Z$0 0040bb5f f    CIL library: CIL module
 0001:0000acd4       __catch$?ChecksumList@CReadFiles@@QAEXPAD@Z$0 0040bcd4 f    CIL library: CIL module
 0001:0000aeef       __catch$?InternalList@CReadFiles@@QAEXPAD@Z$0 0040beef f    CIL library: CIL module
 0001:0000b042       __catch$?WindowList@CReadFiles@@QAEXPAD@Z$0 0040c042 f    CIL library: CIL module
 0001:0000b761       __catch$?reserve@?$vector@UDUMP_LIST_INFO@@V?$allocator@UDUMP_LIST_INFO@@@std@@@std@@QAEXI@Z$0 0040c761 f i  CIL library: CIL module
 0001:0000b855       __catch$?reserve@?$vector@UCSUM_LIST_INFO@@V?$allocator@UCSUM_LIST_INFO@@@std@@@std@@QAEXI@Z$0 0040c855 f i  CIL library: CIL module
 0001:0000b945       __catch$?reserve@?$vector@UITRN_LIST_INFO@@V?$allocator@UITRN_LIST_INFO@@@std@@@std@@QAEXI@Z$0 0040c945 f i  CIL library: CIL module
 0001:0000ba37       __catch$?reserve@?$vector@UWNDW_LIST_INFO@@V?$allocator@UWNDW_LIST_INFO@@@std@@@std@@QAEXI@Z$0 0040ca37 f i  CIL library: CIL module
 0001:00011b12       __catch$?reserve@?$vector@V?$basic_string@DU?$char_traits@D@std@@V?$allocator@D@2@@std@@V?$allocator@V?$basic_string@DU?$char_traits@D@std@@V?$allocator@D@2@@std@@@2@@std@@QAEXI@Z$0 00412b12 f i  CIL library: CIL module
 0001:0001204e       _pre_cpp_init              0041304e f   MSVCRT:crtexew.obj
 0001:00012099       ___tmainCRTStartup         00413099 f   MSVCRT:crtexew.obj
 0001:00012272       _pre_c_init                00413272 f   MSVCRT:crtexew.obj
 0001:00012cd0       __unwindfunclet$??1_Fac_tidy_reg_t@std@@QAE@XZ$0 00413cd0 f   msvcprt:locale0_implib.obj
 0001:00012cd9       __ehhandler$??1_Fac_tidy_reg_t@std@@QAE@XZ 00413cd9 f   msvcprt:locale0_implib.obj
 0001:00012d00       __unwindfunclet$??$use_facet@V?$codecvt@DDH@std@@@std@@YAABV?$codecvt@DDH@0@ABVlocale@0@@Z$0 00413d00 f    CIL library: CIL module
 0001:00012d09       __ehhandler$??$use_facet@V?$codecvt@DDH@std@@@std@@YAABV?$codecvt@DDH@0@ABVlocale@0@@Z 00413d09 f    CIL library: CIL module
 0001:00012d30       __unwindfunclet$?open@?$basic_filebuf@DU?$char_traits@D@std@@@std@@QAEPAV12@PBDHH@Z$0 00413d30 f    CIL library: CIL module
 0001:00012d38       __ehhandler$?open@?$basic_filebuf@DU?$char_traits@D@std@@@std@@QAEPAV12@PBDHH@Z 00413d38 f    CIL library: CIL module
 0001:00012d60       __ehhandler$?reserve@?$vector@UWNDW_LIST_INFO@@V?$allocator@UWNDW_LIST_INFO@@@std@@@std@@QAEXI@Z 00413d60 f    CIL library: CIL module
 0001:00012d80       __ehhandler$?reserve@?$vector@UITRN_LIST_INFO@@V?$allocator@UITRN_LIST_INFO@@@std@@@std@@QAEXI@Z 00413d80 f    CIL library: CIL module
 0001:00012da0       __ehhandler$?reserve@?$vector@UCSUM_LIST_INFO@@V?$allocator@UCSUM_LIST_INFO@@@std@@@std@@QAEXI@Z 00413da0 f    CIL library: CIL module
 0001:00012dc0       __ehhandler$?reserve@?$vector@UDUMP_LIST_INFO@@V?$allocator@UDUMP_LIST_INFO@@@std@@@std@@QAEXI@Z 00413dc0 f    CIL library: CIL module
 0001:00012de0       __ehhandler$?reserve@?$vector@UPROCESS_INFO_DATA@@V?$allocator@UPROCESS_INFO_DATA@@@std@@@std@@QAEXI@Z 00413de0 f    CIL library: CIL module
 0001:00012e00       __ehhandler$?reserve@?$vector@UHARDWARE_ID_INFO@@V?$allocator@UHARDWARE_ID_INFO@@@std@@@std@@QAEXI@Z 00413e00 f    CIL library: CIL module
 0001:00012e20       __unwindfunclet$??_D?$basic_stringstream@DU?$char_traits@D@std@@V?$allocator@D@2@@std@@QAEXXZ$0 00413e20 f    CIL library: CIL module
 0001:00012e2c       __ehhandler$??_D?$basic_stringstream@DU?$char_traits@D@std@@V?$allocator@D@2@@std@@QAEXXZ 00413e2c f    CIL library: CIL module
 0001:00012e50       __unwindfunclet$??1sentry@?$basic_ostream@DU?$char_traits@D@std@@@std@@QAE@XZ$0 00413e50 f    CIL library: CIL module
 0001:00012e58       __ehhandler$??1sentry@?$basic_ostream@DU?$char_traits@D@std@@@std@@QAE@XZ 00413e58 f    CIL library: CIL module
 0001:00012e80       __unwindfunclet$??$?6U?$char_traits@D@std@@@std@@YAAAV?$basic_ostream@DU?$char_traits@D@std@@@0@AAV10@PBD@Z$3 00413e80 f    CIL library: CIL module
 0001:00012e88       __unwindfunclet$??$?6U?$char_traits@D@std@@@std@@YAAAV?$basic_ostream@DU?$char_traits@D@std@@@0@AAV10@PBD@Z$2 00413e88 f    CIL library: CIL module
 0001:00012e92       __unwindfunclet$??$?6U?$char_traits@D@std@@@std@@YAAAV?$basic_ostream@DU?$char_traits@D@std@@@0@AAV10@PBD@Z$4 00413e92 f    CIL library: CIL module
 0001:00012e9a       __ehhandler$??$?6U?$char_traits@D@std@@@std@@YAAAV?$basic_ostream@DU?$char_traits@D@std@@@0@AAV10@PBD@Z 00413e9a f    CIL library: CIL module
 0001:00012ec0       __ehhandler$?reserve@?$vector@UBLACKLIST_HARDID_INFO@@V?$allocator@UBLACKLIST_HARDID_INFO@@@std@@@std@@QAEXI@Z 00413ec0 f    CIL library: CIL module
 0001:00012ee0       __ehhandler$?reserve@?$vector@UBLACKLIST_IPADDR_INFO@@V?$allocator@UBLACKLIST_IPADDR_INFO@@@std@@@std@@QAEXI@Z 00413ee0 f    CIL library: CIL module
 0001:00012f00       __unwindfunclet$?ClearQueue@CQueue@@QAEXXZ$3 00413f00 f    CIL library: CIL module
 0001:00012f09       __unwindfunclet$?ClearQueue@CQueue@@QAEXXZ$0 00413f09 f    CIL library: CIL module
 0001:00012f11       __ehhandler$?ClearQueue@CQueue@@QAEXXZ 00413f11 f    CIL library: CIL module
 0001:00012f30       __unwindfunclet$??1CQueue@@UAE@XZ$0 00413f30 f    CIL library: CIL module
 0001:00012f3b       __unwindfunclet$??1CQueue@@UAE@XZ$1 00413f3b f    CIL library: CIL module
 0001:00012f46       __ehhandler$??1CQueue@@UAE@XZ 00413f46 f    CIL library: CIL module
 0001:00012f70       __unwindfunclet$??_GCQueue@@UAEPAXI@Z$0 00413f70 f    CIL library: CIL module
 0001:00012f7b       __unwindfunclet$??_GCQueue@@UAEPAXI@Z$1 00413f7b f    CIL library: CIL module
 0001:00012f86       __ehhandler$??_GCQueue@@UAEPAXI@Z 00413f86 f    CIL library: CIL module
 0001:00012fb0       __unwindfunclet$??_G?$basic_stringstream@DU?$char_traits@D@std@@V?$allocator@D@2@@std@@UAEPAXI@Z$0 00413fb0 f    CIL library: CIL module
 0001:00012fbc       __ehhandler$??_G?$basic_stringstream@DU?$char_traits@D@std@@V?$allocator@D@2@@std@@UAEPAXI@Z 00413fbc f    CIL library: CIL module
 0001:00012fe0       __unwindfunclet$??0?$basic_stringstream@DU?$char_traits@D@std@@V?$allocator@D@2@@std@@QAE@H@Z$0 00413fe0 f    CIL library: CIL module
 0001:00012ffd       __unwindfunclet$??0?$basic_stringstream@DU?$char_traits@D@std@@V?$allocator@D@2@@std@@QAE@H@Z$1 00413ffd f    CIL library: CIL module
 0001:00013009       __unwindfunclet$??0?$basic_stringstream@DU?$char_traits@D@std@@V?$allocator@D@2@@std@@QAE@H@Z$3 00414009 f    CIL library: CIL module
 0001:00013012       __ehhandler$??0?$basic_stringstream@DU?$char_traits@D@std@@V?$allocator@D@2@@std@@QAE@H@Z 00414012 f    CIL library: CIL module
 0001:00013030       __ehhandler$?SetList@CBlackList@@QAEXPAD@Z 00414030 f    CIL library: CIL module
 0001:00013060       __ehhandler$?_Copy@?$basic_string@DU?$char_traits@D@std@@V?$allocator@D@2@@std@@QAEXII@Z 00414060 f    CIL library: CIL module
 0001:00013080       __unwindfunclet$??1CSocketManager@@UAE@XZ$0 00414080 f    CIL library: CIL module
 0001:0001308b       __unwindfunclet$??1CSocketManager@@UAE@XZ$1 0041408b f    CIL library: CIL module
 0001:00013096       __unwindfunclet$??1CSocketManager@@UAE@XZ$2 00414096 f    CIL library: CIL module
 0001:000130a1       __unwindfunclet$??1CSocketManager@@UAE@XZ$3 004140a1 f    CIL library: CIL module
 0001:000130ac       __ehhandler$??1CSocketManager@@UAE@XZ 004140ac f    CIL library: CIL module
 0001:000130d0       __unwindfunclet$??0CSocketManager@@QAE@XZ$2 004140d0 f    CIL library: CIL module
 0001:000130db       __unwindfunclet$??0CSocketManager@@QAE@XZ$6 004140db f    CIL library: CIL module
 0001:000130e4       __ehhandler$??0CSocketManager@@QAE@XZ 004140e4 f    CIL library: CIL module
 0001:00013100       __ehhandler$?WindowList@CReadFiles@@QAEXPAD@Z 00414100 f    CIL library: CIL module
 0001:00013130       __ehhandler$?InternalList@CReadFiles@@QAEXPAD@Z 00414130 f    CIL library: CIL module
 0001:00013160       __ehhandler$?ChecksumList@CReadFiles@@QAEXPAD@Z 00414160 f    CIL library: CIL module
 0001:00013190       __ehhandler$?DumpList@CReadFiles@@QAEXPAD@Z 00414190 f    CIL library: CIL module
 0001:000131c0       __unwindfunclet$??1?$map@H_NU?$less@H@std@@V?$allocator@U?$pair@$$CBH_N@std@@@2@@std@@QAE@XZ$1 004141c0 f    CIL library: CIL module
 0001:000131c8       __ehhandler$??1?$map@H_NU?$less@H@std@@V?$allocator@U?$pair@$$CBH_N@std@@@2@@std@@QAE@XZ 004141c8 f    CIL library: CIL module
 0001:000131f0       __unwindfunclet$??0CProtection@@QAE@XZ$0 004141f0 f    CIL library: CIL module
 0001:000131ff       __ehhandler$??0CProtection@@QAE@XZ 004141ff f    CIL library: CIL module
 0001:00013220       __unwindfunclet$??0CProcessManager@@QAE@XZ$0 00414220 f    CIL library: CIL module
 0001:0001322b       __ehhandler$??0CProcessManager@@QAE@XZ 0041422b f    CIL library: CIL module
 0001:00013250       __unwindfunclet$??$_Buynode@U?$pair@V?$basic_string@DU?$char_traits@D@std@@V?$allocator@D@2@@std@@UIP_ADDRESS_INFO@@@std@@@?$_Tree_val@V?$_Tmap_traits@V?$basic_string@DU?$char_traits@D@std@@V?$allocator@D@2@@std@@UIP_ADDRESS_INFO@@U?$less@V?$basic_string@DU?$char_traits@D@std@@V?$allocator@D@2@@std@@@2@V?$allocator@U?$pair@$$CBV?$basic_string@DU?$char_traits@D@std@@V?$allocator@D@2@@std@@UIP_ADDRESS_INFO@@@std@@@2@$0A@@std@@@std@@QAEPAU_Node@?$_Tree_nod@V?$_Tmap_traits@V?$basic_string@DU?$char_traits@D@std@@V?$allocator@D@2@@std@@UIP_ADDRESS_INFO@@U?$less@V?$basic_string@DU?$char_traits@D@std@@V?$allocator@D@2@@std@@@2@V?$allocator@U?$pair@$$CBV?$basic_string@DU?$char_traits@D@std@@V?$allocator@D@2@@std@@UIP_ADDRESS_INFO@@@std@@@2@$0A@@std@@@1@$$QAU?$pair@V?$basic_string@DU?$char_traits@D@std@@V?$allocator@D@2@@std@@UIP_ADDRESS_INFO@@@1@@Z$2 00414250 f    CIL library: CIL module
 0001:00013255       __ehhandler$??$_Buynode@U?$pair@V?$basic_string@DU?$char_traits@D@std@@V?$allocator@D@2@@std@@UIP_ADDRESS_INFO@@@std@@@?$_Tree_val@V?$_Tmap_traits@V?$basic_string@DU?$char_traits@D@std@@V?$allocator@D@2@@std@@UIP_ADDRESS_INFO@@U?$less@V?$basic_string@DU?$char_traits@D@std@@V?$allocator@D@2@@std@@@2@V?$allocator@U?$pair@$$CBV?$basic_string@DU?$char_traits@D@std@@V?$allocator@D@2@@std@@UIP_ADDRESS_INFO@@@std@@@2@$0A@@std@@@std@@QAEPAU_Node@?$_Tree_nod@V?$_Tmap_traits@V?$basic_string@DU?$char_traits@D@std@@V?$allocator@D@2@@std@@UIP_ADDRESS_INFO@@U?$less@V?$basic_string@DU?$char_traits@D@std@@V?$allocator@D@2@@std@@@2@V?$allocator@U?$pair@$$CBV?$basic_string@DU?$char_traits@D@std@@V?$allocator@D@2@@std@@UIP_ADDRESS_INFO@@@std@@@2@$0A@@std@@@1@$$QAU?$pair@V?$basic_string@DU?$char_traits@D@std@@V?$allocator@D@2@@std@@UIP_ADDRESS_INFO@@@1@@Z 00414255 f    CIL library: CIL module
 0001:00013270       __unwindfunclet$??$_Uninit_move@PAV?$basic_string@DU?$char_traits@D@std@@V?$allocator@D@2@@std@@PAV12@V?$allocator@V?$basic_string@DU?$char_traits@D@std@@V?$allocator@D@2@@std@@@2@V12@@std@@YAPAV?$basic_string@DU?$char_traits@D@std@@V?$allocator@D@2@@0@PAV10@00AAV?$allocator@V?$basic_string@DU?$char_traits@D@std@@V?$allocator@D@2@@std@@@0@0U_Nonscalar_ptr_iterator_tag@0@@Z$2 00414270 f    CIL library: CIL module
 0001:00013275       __ehhandler$??$_Uninit_move@PAV?$basic_string@DU?$char_traits@D@std@@V?$allocator@D@2@@std@@PAV12@V?$allocator@V?$basic_string@DU?$char_traits@D@std@@V?$allocator@D@2@@std@@@2@V12@@std@@YAPAV?$basic_string@DU?$char_traits@D@std@@V?$allocator@D@2@@0@PAV10@00AAV?$allocator@V?$basic_string@DU?$char_traits@D@std@@V?$allocator@D@2@@std@@@0@0U_Nonscalar_ptr_iterator_tag@0@@Z 00414275 f    CIL library: CIL module
 0001:00013290       __ehhandler$?reserve@?$vector@V?$basic_string@DU?$char_traits@D@std@@V?$allocator@D@2@@std@@V?$allocator@V?$basic_string@DU?$char_traits@D@std@@V?$allocator@D@2@@std@@@2@@std@@QAEXI@Z 00414290 f    CIL library: CIL module
 0001:000132b0       __unwindfunclet$?push_back@?$vector@V?$basic_string@DU?$char_traits@D@std@@V?$allocator@D@2@@std@@V?$allocator@V?$basic_string@DU?$char_traits@D@std@@V?$allocator@D@2@@std@@@2@@std@@QAEX$$QAV?$basic_string@DU?$char_traits@D@std@@V?$allocator@D@2@@2@@Z$0 004142b0 f    CIL library: CIL module
 0001:000132b5       __unwindfunclet$?push_back@?$vector@V?$basic_string@DU?$char_traits@D@std@@V?$allocator@D@2@@std@@V?$allocator@V?$basic_string@DU?$char_traits@D@std@@V?$allocator@D@2@@std@@@2@@std@@QAEX$$QAV?$basic_string@DU?$char_traits@D@std@@V?$allocator@D@2@@2@@Z$1 004142b5 f    CIL library: CIL module
 0001:000132ba       __ehhandler$?push_back@?$vector@V?$basic_string@DU?$char_traits@D@std@@V?$allocator@D@2@@std@@V?$allocator@V?$basic_string@DU?$char_traits@D@std@@V?$allocator@D@2@@std@@@2@@std@@QAEX$$QAV?$basic_string@DU?$char_traits@D@std@@V?$allocator@D@2@@2@@Z 004142ba f    CIL library: CIL module
 0001:000132e0       __unwindfunclet$??_GCProcessManager@@UAEPAXI@Z$0 004142e0 f    CIL library: CIL module
 0001:000132eb       __unwindfunclet$??_GCProcessManager@@UAEPAXI@Z$3 004142eb f    CIL library: CIL module
 0001:000132f3       __ehhandler$??_GCProcessManager@@UAEPAXI@Z 004142f3 f    CIL library: CIL module
 0001:00013310       __unwindfunclet$?RemoveIpAddress@CIpManager@@QAEXPAD@Z$0 00414310 f    CIL library: CIL module
 0001:00013310       __unwindfunclet$?CheckIpAddress@CIpManager@@QAE_NPAD@Z$0 00414310 f    CIL library: CIL module
 0001:00013310       __unwindfunclet$?_Endwrite@?$basic_filebuf@DU?$char_traits@D@std@@@std@@IAE_NXZ$0 00414310 f    CIL library: CIL module
 0001:00013318       __ehhandler$?CheckIpAddress@CIpManager@@QAE_NPAD@Z 00414318 f    CIL library: CIL module
 0001:00013318       __ehhandler$?_Endwrite@?$basic_filebuf@DU?$char_traits@D@std@@@std@@IAE_NXZ 00414318 f    CIL library: CIL module
 0001:00013318       __ehhandler$?RemoveIpAddress@CIpManager@@QAEXPAD@Z 00414318 f    CIL library: CIL module
 0001:00013340       __unwindfunclet$?InsertIpAddress@CIpManager@@QAEXPAD@Z$0 00414340 f    CIL library: CIL module
 0001:00013348       __unwindfunclet$?InsertIpAddress@CIpManager@@QAEXPAD@Z$1 00414348 f    CIL library: CIL module
 0001:00013353       __unwindfunclet$?InsertIpAddress@CIpManager@@QAEXPAD@Z$2 00414353 f    CIL library: CIL module
 0001:0001335b       __ehhandler$?InsertIpAddress@CIpManager@@QAEXPAD@Z 0041435b f    CIL library: CIL module
 0001:00013390       __unwindfunclet$??_GCIpManager@@UAEPAXI@Z$2 00414390 f    CIL library: CIL module
 0001:00013390       __unwindfunclet$??_GCProtection@@UAEPAXI@Z$2 00414390 f    CIL library: CIL module
 0001:00013398       __ehhandler$??_GCIpManager@@UAEPAXI@Z 00414398 f    CIL library: CIL module
 0001:00013398       __ehhandler$??_GCProtection@@UAEPAXI@Z 00414398 f    CIL library: CIL module
 0001:000133c0       __unwindfunclet$?str@?$basic_stringbuf@DU?$char_traits@D@std@@V?$allocator@D@2@@std@@QBE?AV?$basic_string@DU?$char_traits@D@std@@V?$allocator@D@2@@2@XZ$0 004143c0 f    CIL library: CIL module
 0001:000133c8       __unwindfunclet$?str@?$basic_stringbuf@DU?$char_traits@D@std@@V?$allocator@D@2@@std@@QBE?AV?$basic_string@DU?$char_traits@D@std@@V?$allocator@D@2@@2@XZ$2 004143c8 f    CIL library: CIL module
 0001:000133d0       __unwindfunclet$?str@?$basic_stringbuf@DU?$char_traits@D@std@@V?$allocator@D@2@@std@@QBE?AV?$basic_string@DU?$char_traits@D@std@@V?$allocator@D@2@@2@XZ$3 004143d0 f    CIL library: CIL module
 0001:000133d8       __ehhandler$?str@?$basic_stringbuf@DU?$char_traits@D@std@@V?$allocator@D@2@@std@@QBE?AV?$basic_string@DU?$char_traits@D@std@@V?$allocator@D@2@@2@XZ 004143d8 f    CIL library: CIL module
 0001:00013400       __unwindfunclet$?overflow@?$basic_filebuf@DU?$char_traits@D@std@@@std@@MAEHH@Z$0 00414400 f    CIL library: CIL module
 0001:00013400       __unwindfunclet$?uflow@?$basic_filebuf@DU?$char_traits@D@std@@@std@@MAEHXZ$0 00414400 f    CIL library: CIL module
 0001:00013408       __ehhandler$?overflow@?$basic_filebuf@DU?$char_traits@D@std@@@std@@MAEHH@Z 00414408 f    CIL library: CIL module
 0001:00013408       __ehhandler$?uflow@?$basic_filebuf@DU?$char_traits@D@std@@@std@@MAEHXZ 00414408 f    CIL library: CIL module
 0001:00013430       __unwindfunclet$??1?$basic_filebuf@DU?$char_traits@D@std@@@std@@UAE@XZ$0 00414430 f    CIL library: CIL module
 0001:00013439       __ehhandler$??1?$basic_filebuf@DU?$char_traits@D@std@@@std@@UAE@XZ 00414439 f    CIL library: CIL module
 0001:00013460       __unwindfunclet$??0?$basic_ofstream@DU?$char_traits@D@std@@@std@@QAE@XZ$0 00414460 f    CIL library: CIL module
 0001:0001347d       __unwindfunclet$??0?$basic_ofstream@DU?$char_traits@D@std@@@std@@QAE@XZ$1 0041447d f    CIL library: CIL module
 0001:00013489       __unwindfunclet$??0?$basic_ofstream@DU?$char_traits@D@std@@@std@@QAE@XZ$3 00414489 f    CIL library: CIL module
 0001:00013492       __ehhandler$??0?$basic_ofstream@DU?$char_traits@D@std@@@std@@QAE@XZ 00414492 f    CIL library: CIL module
 0001:000134b0       __unwindfunclet$??_D?$basic_ofstream@DU?$char_traits@D@std@@@std@@QAEXXZ$0 004144b0 f    CIL library: CIL module
 0001:000134bc       __ehhandler$??_D?$basic_ofstream@DU?$char_traits@D@std@@@std@@QAEXXZ 004144bc f    CIL library: CIL module
 0001:000134e0       __unwindfunclet$?WriteNewBlackList@CBlackList@@QAEXPAD@Z$0 004144e0 f    CIL library: CIL module
 0001:000134eb       __unwindfunclet$?WriteNewBlackList@CBlackList@@QAEXPAD@Z$1 004144eb f    CIL library: CIL module
 0001:000134fa       __unwindfunclet$?WriteNewBlackList@CBlackList@@QAEXPAD@Z$3 004144fa f    CIL library: CIL module
 0001:00013506       __ehhandler$?WriteNewBlackList@CBlackList@@QAEXPAD@Z 00414506 f    CIL library: CIL module
 0001:00013540       __unwindfunclet$?split@@YA?AV?$vector@V?$basic_string@DU?$char_traits@D@std@@V?$allocator@D@2@@std@@V?$allocator@V?$basic_string@DU?$char_traits@D@std@@V?$allocator@D@2@@std@@@2@@std@@ABV?$basic_string@DU?$char_traits@D@std@@V?$allocator@D@2@@2@D@Z$0 00414540 f    CIL library: CIL module
 0001:00013559       __unwindfunclet$?split@@YA?AV?$vector@V?$basic_string@DU?$char_traits@D@std@@V?$allocator@D@2@@std@@V?$allocator@V?$basic_string@DU?$char_traits@D@std@@V?$allocator@D@2@@std@@@2@@std@@ABV?$basic_string@DU?$char_traits@D@std@@V?$allocator@D@2@@2@D@Z$2 00414559 f    CIL library: CIL module
 0001:00013561       __unwindfunclet$?split@@YA?AV?$vector@V?$basic_string@DU?$char_traits@D@std@@V?$allocator@D@2@@std@@V?$allocator@V?$basic_string@DU?$char_traits@D@std@@V?$allocator@D@2@@std@@@2@@std@@ABV?$basic_string@DU?$char_traits@D@std@@V?$allocator@D@2@@2@D@Z$1 00414561 f    CIL library: CIL module
 0001:00013569       __unwindfunclet$?split@@YA?AV?$vector@V?$basic_string@DU?$char_traits@D@std@@V?$allocator@D@2@@std@@V?$allocator@V?$basic_string@DU?$char_traits@D@std@@V?$allocator@D@2@@std@@@2@@std@@ABV?$basic_string@DU?$char_traits@D@std@@V?$allocator@D@2@@2@D@Z$3 00414569 f    CIL library: CIL module
 0001:0001356e       __unwindfunclet$?split@@YA?AV?$vector@V?$basic_string@DU?$char_traits@D@std@@V?$allocator@D@2@@std@@V?$allocator@V?$basic_string@DU?$char_traits@D@std@@V?$allocator@D@2@@std@@@2@@std@@ABV?$basic_string@DU?$char_traits@D@std@@V?$allocator@D@2@@2@D@Z$4 0041456e f    CIL library: CIL module
 0001:00013573       __ehhandler$?split@@YA?AV?$vector@V?$basic_string@DU?$char_traits@D@std@@V?$allocator@D@2@@std@@V?$allocator@V?$basic_string@DU?$char_traits@D@std@@V?$allocator@D@2@@std@@@2@@std@@ABV?$basic_string@DU?$char_traits@D@std@@V?$allocator@D@2@@2@D@Z 00414573 f    CIL library: CIL module
 0001:000135a0       __unwindfunclet$??0?$basic_ofstream@DU?$char_traits@D@std@@@std@@QAE@PBDHH@Z$0 004145a0 f    CIL library: CIL module
 0001:000135bd       __unwindfunclet$??0?$basic_ofstream@DU?$char_traits@D@std@@@std@@QAE@PBDHH@Z$1 004145bd f    CIL library: CIL module
 0001:000135c9       __unwindfunclet$??0?$basic_ofstream@DU?$char_traits@D@std@@@std@@QAE@PBDHH@Z$3 004145c9 f    CIL library: CIL module
 0001:000135d2       __unwindfunclet$??0?$basic_ofstream@DU?$char_traits@D@std@@@std@@QAE@PBDHH@Z$2 004145d2 f    CIL library: CIL module
 0001:000135dd       __ehhandler$??0?$basic_ofstream@DU?$char_traits@D@std@@@std@@QAE@PBDHH@Z 004145dd f    CIL library: CIL module
 0001:00013600       __unwindfunclet$?RecvFile@CProcessListInfo@@QAEXPAUPMSG_FILE_RECV@@@Z$0 00414600 f    CIL library: CIL module
 0001:0001360b       __unwindfunclet$?RecvFile@CProcessListInfo@@QAEXPAUPMSG_FILE_RECV@@@Z$2 0041460b f    CIL library: CIL module
 0001:00013613       __unwindfunclet$?RecvFile@CProcessListInfo@@QAEXPAUPMSG_FILE_RECV@@@Z$3 00414613 f    CIL library: CIL module
 0001:0001361e       __unwindfunclet$?RecvFile@CProcessListInfo@@QAEXPAUPMSG_FILE_RECV@@@Z$4 0041461e f    CIL library: CIL module
 0001:0001362a       __unwindfunclet$?RecvFile@CProcessListInfo@@QAEXPAUPMSG_FILE_RECV@@@Z$6 0041462a f    CIL library: CIL module
 0001:00013636       __ehhandler$?RecvFile@CProcessListInfo@@QAEXPAUPMSG_FILE_RECV@@@Z 00414636 f    CIL library: CIL module
 0001:00013660       __unwindfunclet$?RecvProcessClass@CProcessListInfo@@QAEXPAUPMSG_WINDOW_CLASS_SEND@@@Z$0 00414660 f    CIL library: CIL module
 0001:0001366b       __unwindfunclet$?RecvProcessClass@CProcessListInfo@@QAEXPAUPMSG_WINDOW_CLASS_SEND@@@Z$1 0041466b f    CIL library: CIL module
 0001:00013673       __unwindfunclet$?RecvProcessClass@CProcessListInfo@@QAEXPAUPMSG_WINDOW_CLASS_SEND@@@Z$3 00414673 f    CIL library: CIL module
 0001:0001367f       __unwindfunclet$?RecvProcessClass@CProcessListInfo@@QAEXPAUPMSG_WINDOW_CLASS_SEND@@@Z$5 0041467f f    CIL library: CIL module
 0001:00013688       __ehhandler$?RecvProcessClass@CProcessListInfo@@QAEXPAUPMSG_WINDOW_CLASS_SEND@@@Z 00414688 f    CIL library: CIL module
 0001:000136b0       __unwindfunclet$??_G?$basic_ofstream@DU?$char_traits@D@std@@@std@@UAEPAXI@Z$0 004146b0 f    CIL library: CIL module
 0001:000136bc       __ehhandler$??_G?$basic_ofstream@DU?$char_traits@D@std@@@std@@UAEPAXI@Z 004146bc f    CIL library: CIL module
 0001:000136e0       __unwindfunclet$?validateIP@@YA_NV?$basic_string@DU?$char_traits@D@std@@V?$allocator@D@2@@std@@@Z$0 004146e0 f    CIL library: CIL module
 0001:000136e8       __unwindfunclet$?validateIP@@YA_NV?$basic_string@DU?$char_traits@D@std@@V?$allocator@D@2@@std@@@Z$1 004146e8 f    CIL library: CIL module
 0001:000136f0       __ehhandler$?validateIP@@YA_NV?$basic_string@DU?$char_traits@D@std@@V?$allocator@D@2@@std@@@Z 004146f0 f    CIL library: CIL module
 0001:00013710       __unwindfunclet$?DrawScreen@CScreenShow@@SAXPAUHWND__@@PAUHDC__@@@Z$0 00414710 f    CIL library: CIL module
 0001:0001371b       __ehhandler$?DrawScreen@CScreenShow@@SAXPAUHWND__@@PAUHDC__@@@Z 0041471b f    CIL library: CIL module
 0001:00013750       __unwindfunclet$?FindCodecForExtension@CImage@ATL@@CA?AU_GUID@@PBDPBVImageCodecInfo@Gdiplus@@I@Z$0 00414750 f    CIL library: CIL module
 0001:0001375b       __unwindfunclet$?FindCodecForExtension@CImage@ATL@@CA?AU_GUID@@PBDPBVImageCodecInfo@Gdiplus@@I@Z$4 0041475b f    CIL library: CIL module
 0001:00013766       __unwindfunclet$?FindCodecForExtension@CImage@ATL@@CA?AU_GUID@@PBDPBVImageCodecInfo@Gdiplus@@I@Z$1 00414766 f    CIL library: CIL module
 0001:00013771       __unwindfunclet$?FindCodecForExtension@CImage@ATL@@CA?AU_GUID@@PBDPBVImageCodecInfo@Gdiplus@@I@Z$2 00414771 f    CIL library: CIL module
 0001:0001377c       __unwindfunclet$?FindCodecForExtension@CImage@ATL@@CA?AU_GUID@@PBDPBVImageCodecInfo@Gdiplus@@I@Z$5 0041477c f    CIL library: CIL module
 0001:00013787       __unwindfunclet$?FindCodecForExtension@CImage@ATL@@CA?AU_GUID@@PBDPBVImageCodecInfo@Gdiplus@@I@Z$3 00414787 f    CIL library: CIL module
 0001:00013792       __ehhandler$?FindCodecForExtension@CImage@ATL@@CA?AU_GUID@@PBDPBVImageCodecInfo@Gdiplus@@I@Z 00414792 f    CIL library: CIL module
 0001:000137c0       __unwindfunclet$?SaveScreen@CScreenShot@@QAEXPAD0H@Z$0 004147c0 f    CIL library: CIL module
 0001:000137cb       __ehhandler$?SaveScreen@CScreenShot@@QAEXPAD0H@Z 004147cb f    CIL library: CIL module
 0001:00013800       __unwindfunclet$??__FgProtection@@YAXXZ$2 00414800 f    CIL library: CIL module
 0001:00013808       __ehhandler$??__FgProtection@@YAXXZ 00414808 f    CIL library: CIL module
 0001:00013830       __unwindfunclet$??__FgProcessManager@@YAXXZ$0 00414830 f    CIL library: CIL module
 0001:0001383a       __unwindfunclet$??__FgProcessManager@@YAXXZ$3 0041483a f    CIL library: CIL module
 0001:00013842       __ehhandler$??__FgProcessManager@@YAXXZ 00414842 f    CIL library: CIL module
 0001:00013860       __unwindfunclet$??__FgIpManager@@YAXXZ$2 00414860 f    CIL library: CIL module
 0001:00013868       __ehhandler$??__FgIpManager@@YAXXZ 00414868 f    CIL library: CIL module
 0001:00013890       ??__EgAuthenticate@@YAXXZ  00414890 f    CIL library: CIL module
 0001:000138c0       ??__EgBlackList@@YAXXZ     004148c0 f    CIL library: CIL module
 0001:000138d0       ??__EgClientManager@@YAXXZ 004148d0 f    CIL library: CIL module
 0001:00013900       ??__EgHidManager@@YAXXZ    00414900 f    CIL library: CIL module
 0001:00013910       ??__EgIpManager@@YAXXZ     00414910 f    CIL library: CIL module
 0001:00013990       ??__EgLog@@YAXXZ           00414990 f    CIL library: CIL module
 0001:000139a0       ??__EgProcessListInfo@@YAXXZ 004149a0 f    CIL library: CIL module
 0001:000139d0       ??__EgProcessManager@@YAXXZ 004149d0 f    CIL library: CIL module
 0001:000139f0       ??__EgProtection@@YAXXZ    004149f0 f    CIL library: CIL module
 0001:00013a10       ??__EgReadFiles@@YAXXZ     00414a10 f    CIL library: CIL module
 0001:00013a20       ??__EgScreenShot@@YAXXZ    00414a20 f    CIL library: CIL module
 0001:00013a40       ??__EgScreenShow@@YAXXZ    00414a40 f    CIL library: CIL module
 0001:00013a60       ??__EgServerDisplayer@@YAXXZ 00414a60 f    CIL library: CIL module
 0001:00013a80       ??__EgServerInfo@@YAXXZ    00414a80 f    CIL library: CIL module
 0001:00013a90       ??__EgSocketManager@@YAXXZ 00414a90 f    CIL library: CIL module
 0001:00013aa1       ??__E_Fac_tidy_reg@std@@YAXXZ 00414aa1 f   msvcprt:locale0_implib.obj
 0001:00013aad       ??__E?s_initGDIPlus@CImage@ATL@@0VCInitGDIPlus@12@A@@YAXXZ 00414aad f   atls:atlimage2.obj
 0001:00013ac3       ??__E?s_cache@CImage@ATL@@0VCDCCache@12@A@@YAXXZ 00414ac3 f   atls:atlimage.obj
 0001:00013ade       ??__Eg_strheap@ATL@@YAXXZ  00414ade f   atls:atlstr.obj
 0001:00013b06       ??__Eg_strmgr@ATL@@YAXXZ   00414b06 f   atls:atlstr.obj
 0001:00013b12       ??__E_AtlBaseModule@ATL@@YAXXZ 00414b12 f   atls:atlbase.obj
 0001:00013b30       ??__FgAuthenticate@@YAXXZ  00414b30 f    CIL library: CIL module
 0001:00013b70       ??__FgBlackList@@YAXXZ     00414b70 f    CIL library: CIL module
 0001:00013bd0       ??__FgClientManager@@YAXXZ 00414bd0 f    CIL library: CIL module
 0001:00013bf0       ??__FgHidManager@@YAXXZ    00414bf0 f    CIL library: CIL module
 0001:00013c30       ??__FgIpManager@@YAXXZ     00414c30 f    CIL library: CIL module
 0001:00013cb0       ??__FgLog@@YAXXZ           00414cb0 f    CIL library: CIL module
 0001:00013cc0       ??__FgProcessListInfo@@YAXXZ 00414cc0 f    CIL library: CIL module
 0001:00013d10       ??__FgProcessManager@@YAXXZ 00414d10 f    CIL library: CIL module
 0001:00013da0       ??__FgProtection@@YAXXZ    00414da0 f    CIL library: CIL module
 0001:00013e20       ??__FgReadFiles@@YAXXZ     00414e20 f    CIL library: CIL module
 0001:00013e30       ??__FgScreenShot@@YAXXZ    00414e30 f    CIL library: CIL module
 0001:00013e80       ??__FgScreenShow@@YAXXZ    00414e80 f    CIL library: CIL module
 0001:00013ee0       ??__FgServerDisplayer@@YAXXZ 00414ee0 f    CIL library: CIL module
 0001:00013f20       ??__FgServerInfo@@YAXXZ    00414f20 f    CIL library: CIL module
 0001:00013f30       ??__FgSocketManager@@YAXXZ 00414f30 f    CIL library: CIL module
 0001:00013f3a       ??__F_Fac_tidy_reg@std@@YAXXZ 00414f3a f   msvcprt:locale0_implib.obj
 0001:00013f44       ??__F?s_initGDIPlus@CImage@ATL@@0VCInitGDIPlus@12@A@@YAXXZ 00414f44 f   atls:atlimage2.obj
 0001:00013f5a       ??__F?s_cache@CImage@ATL@@0VCDCCache@12@A@@YAXXZ 00414f5a f   atls:atlimage.obj
 0001:00013f64       ??__Fg_strheap@ATL@@YAXXZ  00414f64 f   atls:atlstr.obj
 0001:00013f6e       ??__Fg_strmgr@ATL@@YAXXZ   00414f6e f   atls:atlstr.obj
 0001:00013f79       ??__F_AtlBaseModule@ATL@@YAXXZ 00414f79 f   atls:atlbase.obj
